
bin\Release\MegaRTOS.elf:     file format elf32-avr

Sections:
Idx Name          Size      VMA       LMA       File off  Algn
  0 .data         00000164  00800100  000042cc  00004380  2**0
                  CONTENTS, ALLOC, LOAD, DATA
  1 .text         000042cc  00000000  00000000  000000b4  2**1
                  CONTENTS, ALLOC, LOAD, READONLY, CODE
  2 .bss          000004af  00800264  00800264  000044e4  2**0
                  ALLOC
  3 .fuse         00000003  00820000  00820000  000044e4  2**0
                  CONTENTS, ALLOC, LOAD, DATA
  4 .debug_aranges 000001a0  00000000  00000000  000044e7  2**0
                  CONTENTS, READONLY, DEBUGGING
  5 .debug_pubnames 000001f0  00000000  00000000  00004687  2**0
                  CONTENTS, READONLY, DEBUGGING
  6 .debug_info   0000240c  00000000  00000000  00004877  2**0
                  CONTENTS, READONLY, DEBUGGING
  7 .debug_abbrev 00001377  00000000  00000000  00006c83  2**0
                  CONTENTS, READONLY, DEBUGGING
  8 .debug_line   000011d8  00000000  00000000  00007ffa  2**0
                  CONTENTS, READONLY, DEBUGGING
  9 .debug_frame  000001c0  00000000  00000000  000091d4  2**2
                  CONTENTS, READONLY, DEBUGGING
 10 .debug_str    000002f3  00000000  00000000  00009394  2**0
                  CONTENTS, READONLY, DEBUGGING
 11 .debug_loc    000009ce  00000000  00000000  00009687  2**0
                  CONTENTS, READONLY, DEBUGGING
 12 .debug_ranges 00000050  00000000  00000000  0000a055  2**0
                  CONTENTS, READONLY, DEBUGGING

Disassembly of section .text:

00000000 <__vectors>:
       0:	0c 94 34 00 	jmp	0x68	; 0x68 <__ctors_end>
       4:	0c 94 51 00 	jmp	0xa2	; 0xa2 <__bad_interrupt>
       8:	0c 94 51 00 	jmp	0xa2	; 0xa2 <__bad_interrupt>
       c:	0c 94 51 00 	jmp	0xa2	; 0xa2 <__bad_interrupt>
      10:	0c 94 51 00 	jmp	0xa2	; 0xa2 <__bad_interrupt>
      14:	0c 94 51 00 	jmp	0xa2	; 0xa2 <__bad_interrupt>
      18:	0c 94 51 00 	jmp	0xa2	; 0xa2 <__bad_interrupt>
      1c:	0c 94 51 00 	jmp	0xa2	; 0xa2 <__bad_interrupt>
      20:	0c 94 51 00 	jmp	0xa2	; 0xa2 <__bad_interrupt>
      24:	0c 94 51 00 	jmp	0xa2	; 0xa2 <__bad_interrupt>
      28:	0c 94 51 00 	jmp	0xa2	; 0xa2 <__bad_interrupt>
      2c:	0c 94 51 00 	jmp	0xa2	; 0xa2 <__bad_interrupt>
      30:	0c 94 51 00 	jmp	0xa2	; 0xa2 <__bad_interrupt>
      34:	0c 94 cd 04 	jmp	0x99a	; 0x99a <__vector_13>
      38:	0c 94 ab 08 	jmp	0x1156	; 0x1156 <__vector_14>
      3c:	0c 94 51 00 	jmp	0xa2	; 0xa2 <__bad_interrupt>
      40:	0c 94 51 00 	jmp	0xa2	; 0xa2 <__bad_interrupt>
      44:	0c 94 51 00 	jmp	0xa2	; 0xa2 <__bad_interrupt>
      48:	0c 94 4c 05 	jmp	0xa98	; 0xa98 <__vector_18>
      4c:	0c 94 51 00 	jmp	0xa2	; 0xa2 <__bad_interrupt>
      50:	0c 94 51 00 	jmp	0xa2	; 0xa2 <__bad_interrupt>
      54:	0c 94 05 05 	jmp	0xa0a	; 0xa0a <__vector_21>
      58:	0c 94 51 00 	jmp	0xa2	; 0xa2 <__bad_interrupt>
      5c:	0c 94 51 00 	jmp	0xa2	; 0xa2 <__bad_interrupt>
      60:	0c 94 51 00 	jmp	0xa2	; 0xa2 <__bad_interrupt>
      64:	0c 94 51 00 	jmp	0xa2	; 0xa2 <__bad_interrupt>

00000068 <__ctors_end>:
      68:	11 24       	eor	r1, r1
      6a:	1f be       	out	0x3f, r1	; 63
      6c:	cf ef       	ldi	r28, 0xFF	; 255
      6e:	d8 e0       	ldi	r29, 0x08	; 8
      70:	de bf       	out	0x3e, r29	; 62
      72:	cd bf       	out	0x3d, r28	; 61

00000074 <__do_copy_data>:
      74:	12 e0       	ldi	r17, 0x02	; 2
      76:	a0 e0       	ldi	r26, 0x00	; 0
      78:	b1 e0       	ldi	r27, 0x01	; 1
      7a:	ec ec       	ldi	r30, 0xCC	; 204
      7c:	f2 e4       	ldi	r31, 0x42	; 66
      7e:	02 c0       	rjmp	.+4      	; 0x84 <.do_copy_data_start>

00000080 <.do_copy_data_loop>:
      80:	05 90       	lpm	r0, Z+
      82:	0d 92       	st	X+, r0

00000084 <.do_copy_data_start>:
      84:	a4 36       	cpi	r26, 0x64	; 100
      86:	b1 07       	cpc	r27, r17
      88:	d9 f7       	brne	.-10     	; 0x80 <.do_copy_data_loop>

0000008a <__do_clear_bss>:
      8a:	17 e0       	ldi	r17, 0x07	; 7
      8c:	a4 e6       	ldi	r26, 0x64	; 100
      8e:	b2 e0       	ldi	r27, 0x02	; 2
      90:	01 c0       	rjmp	.+2      	; 0x94 <.do_clear_bss_start>

00000092 <.do_clear_bss_loop>:
      92:	1d 92       	st	X+, r1

00000094 <.do_clear_bss_start>:
      94:	a3 31       	cpi	r26, 0x13	; 19
      96:	b1 07       	cpc	r27, r17
      98:	e1 f7       	brne	.-8      	; 0x92 <.do_clear_bss_loop>
      9a:	0e 94 97 05 	call	0xb2e	; 0xb2e <main>
      9e:	0c 94 64 21 	jmp	0x42c8	; 0x42c8 <_exit>

000000a2 <__bad_interrupt>:
      a2:	0c 94 00 00 	jmp	0	; 0x0 <__vectors>

000000a6 <xCoRoutineRemoveFromEventList>:
      a6:	ef 92       	push	r14
      a8:	ff 92       	push	r15
      aa:	0f 93       	push	r16
      ac:	1f 93       	push	r17
      ae:	dc 01       	movw	r26, r24
      b0:	15 96       	adiw	r26, 0x05	; 5
      b2:	ed 91       	ld	r30, X+
      b4:	fc 91       	ld	r31, X
      b6:	16 97       	sbiw	r26, 0x06	; 6
      b8:	e6 80       	ldd	r14, Z+6	; 0x06
      ba:	f7 80       	ldd	r15, Z+7	; 0x07
      bc:	87 01       	movw	r16, r14
      be:	04 5f       	subi	r16, 0xF4	; 244
      c0:	1f 4f       	sbci	r17, 0xFF	; 255
      c2:	c8 01       	movw	r24, r16
      c4:	0e 94 08 04 	call	0x810	; 0x810 <uxListRemove>
      c8:	85 e9       	ldi	r24, 0x95	; 149
      ca:	92 e0       	ldi	r25, 0x02	; 2
      cc:	b8 01       	movw	r22, r16
      ce:	0e 94 b7 03 	call	0x76e	; 0x76e <vListInsertEnd>
      d2:	20 e0       	ldi	r18, 0x00	; 0
      d4:	e0 91 64 02 	lds	r30, 0x0264
      d8:	f0 91 65 02 	lds	r31, 0x0265
      dc:	d7 01       	movw	r26, r14
      de:	56 96       	adiw	r26, 0x16	; 22
      e0:	9c 91       	ld	r25, X
      e2:	86 89       	ldd	r24, Z+22	; 0x16
      e4:	98 17       	cp	r25, r24
      e6:	08 f0       	brcs	.+2      	; 0xea <xCoRoutineRemoveFromEventList+0x44>
      e8:	21 e0       	ldi	r18, 0x01	; 1
      ea:	82 2f       	mov	r24, r18
      ec:	1f 91       	pop	r17
      ee:	0f 91       	pop	r16
      f0:	ff 90       	pop	r15
      f2:	ef 90       	pop	r14
      f4:	08 95       	ret

000000f6 <vCoRoutineSchedule>:
      f6:	ff 92       	push	r15
      f8:	0f 93       	push	r16
      fa:	1f 93       	push	r17
      fc:	cf 93       	push	r28
      fe:	df 93       	push	r29
     100:	99 e0       	ldi	r25, 0x09	; 9
     102:	f9 2e       	mov	r15, r25
     104:	21 c0       	rjmp	.+66     	; 0x148 <vCoRoutineSchedule+0x52>
     106:	f8 94       	cli
     108:	e0 91 9a 02 	lds	r30, 0x029A
     10c:	f0 91 9b 02 	lds	r31, 0x029B
     110:	06 81       	ldd	r16, Z+6	; 0x06
     112:	17 81       	ldd	r17, Z+7	; 0x07
     114:	c8 01       	movw	r24, r16
     116:	0c 96       	adiw	r24, 0x0c	; 12
     118:	0e 94 08 04 	call	0x810	; 0x810 <uxListRemove>
     11c:	78 94       	sei
     11e:	e8 01       	movw	r28, r16
     120:	22 96       	adiw	r28, 0x02	; 2
     122:	ce 01       	movw	r24, r28
     124:	0e 94 08 04 	call	0x810	; 0x810 <uxListRemove>
     128:	f8 01       	movw	r30, r16
     12a:	96 89       	ldd	r25, Z+22	; 0x16
     12c:	80 91 66 02 	lds	r24, 0x0266
     130:	89 17       	cp	r24, r25
     132:	10 f4       	brcc	.+4      	; 0x138 <vCoRoutineSchedule+0x42>
     134:	90 93 66 02 	sts	0x0266, r25
     138:	9f 9d       	mul	r25, r15
     13a:	c0 01       	movw	r24, r0
     13c:	11 24       	eor	r1, r1
     13e:	83 59       	subi	r24, 0x93	; 147
     140:	9d 4f       	sbci	r25, 0xFD	; 253
     142:	be 01       	movw	r22, r28
     144:	0e 94 b7 03 	call	0x76e	; 0x76e <vListInsertEnd>
     148:	80 91 95 02 	lds	r24, 0x0295
     14c:	88 23       	and	r24, r24
     14e:	d9 f6       	brne	.-74     	; 0x106 <vCoRoutineSchedule+0x10>
     150:	0e 94 e2 12 	call	0x25c4	; 0x25c4 <xTaskGetTickCount>
     154:	20 91 67 02 	lds	r18, 0x0267
     158:	30 91 68 02 	lds	r19, 0x0268
     15c:	82 1b       	sub	r24, r18
     15e:	93 0b       	sbc	r25, r19
     160:	90 93 6a 02 	sts	0x026A, r25
     164:	80 93 69 02 	sts	0x0269, r24
     168:	89 e0       	ldi	r24, 0x09	; 9
     16a:	f8 2e       	mov	r15, r24
     16c:	53 c0       	rjmp	.+166    	; 0x214 <vCoRoutineSchedule+0x11e>
     16e:	01 96       	adiw	r24, 0x01	; 1
     170:	90 93 6c 02 	sts	0x026C, r25
     174:	80 93 6b 02 	sts	0x026B, r24
     178:	21 50       	subi	r18, 0x01	; 1
     17a:	30 40       	sbci	r19, 0x00	; 0
     17c:	30 93 6a 02 	sts	0x026A, r19
     180:	20 93 69 02 	sts	0x0269, r18
     184:	89 2b       	or	r24, r25
     186:	09 f0       	breq	.+2      	; 0x18a <vCoRoutineSchedule+0x94>
     188:	3e c0       	rjmp	.+124    	; 0x206 <vCoRoutineSchedule+0x110>
     18a:	20 91 91 02 	lds	r18, 0x0291
     18e:	30 91 92 02 	lds	r19, 0x0292
     192:	80 91 93 02 	lds	r24, 0x0293
     196:	90 91 94 02 	lds	r25, 0x0294
     19a:	90 93 92 02 	sts	0x0292, r25
     19e:	80 93 91 02 	sts	0x0291, r24
     1a2:	30 93 94 02 	sts	0x0294, r19
     1a6:	20 93 93 02 	sts	0x0293, r18
     1aa:	2d c0       	rjmp	.+90     	; 0x206 <vCoRoutineSchedule+0x110>
     1ac:	05 80       	ldd	r0, Z+5	; 0x05
     1ae:	f6 81       	ldd	r31, Z+6	; 0x06
     1b0:	e0 2d       	mov	r30, r0
     1b2:	c6 81       	ldd	r28, Z+6	; 0x06
     1b4:	d7 81       	ldd	r29, Z+7	; 0x07
     1b6:	20 91 6b 02 	lds	r18, 0x026B
     1ba:	30 91 6c 02 	lds	r19, 0x026C
     1be:	8a 81       	ldd	r24, Y+2	; 0x02
     1c0:	9b 81       	ldd	r25, Y+3	; 0x03
     1c2:	28 17       	cp	r18, r24
     1c4:	39 07       	cpc	r19, r25
     1c6:	30 f1       	brcs	.+76     	; 0x214 <vCoRoutineSchedule+0x11e>
     1c8:	f8 94       	cli
     1ca:	8e 01       	movw	r16, r28
     1cc:	0e 5f       	subi	r16, 0xFE	; 254
     1ce:	1f 4f       	sbci	r17, 0xFF	; 255
     1d0:	c8 01       	movw	r24, r16
     1d2:	0e 94 08 04 	call	0x810	; 0x810 <uxListRemove>
     1d6:	8c 89       	ldd	r24, Y+20	; 0x14
     1d8:	9d 89       	ldd	r25, Y+21	; 0x15
     1da:	89 2b       	or	r24, r25
     1dc:	21 f0       	breq	.+8      	; 0x1e6 <vCoRoutineSchedule+0xf0>
     1de:	ce 01       	movw	r24, r28
     1e0:	0c 96       	adiw	r24, 0x0c	; 12
     1e2:	0e 94 08 04 	call	0x810	; 0x810 <uxListRemove>
     1e6:	78 94       	sei
     1e8:	9e 89       	ldd	r25, Y+22	; 0x16
     1ea:	80 91 66 02 	lds	r24, 0x0266
     1ee:	89 17       	cp	r24, r25
     1f0:	10 f4       	brcc	.+4      	; 0x1f6 <vCoRoutineSchedule+0x100>
     1f2:	90 93 66 02 	sts	0x0266, r25
     1f6:	9f 9d       	mul	r25, r15
     1f8:	c0 01       	movw	r24, r0
     1fa:	11 24       	eor	r1, r1
     1fc:	83 59       	subi	r24, 0x93	; 147
     1fe:	9d 4f       	sbci	r25, 0xFD	; 253
     200:	b8 01       	movw	r22, r16
     202:	0e 94 b7 03 	call	0x76e	; 0x76e <vListInsertEnd>
     206:	e0 91 91 02 	lds	r30, 0x0291
     20a:	f0 91 92 02 	lds	r31, 0x0292
     20e:	80 81       	ld	r24, Z
     210:	88 23       	and	r24, r24
     212:	61 f6       	brne	.-104    	; 0x1ac <vCoRoutineSchedule+0xb6>
     214:	20 91 69 02 	lds	r18, 0x0269
     218:	30 91 6a 02 	lds	r19, 0x026A
     21c:	80 91 6b 02 	lds	r24, 0x026B
     220:	90 91 6c 02 	lds	r25, 0x026C
     224:	21 15       	cp	r18, r1
     226:	31 05       	cpc	r19, r1
     228:	09 f0       	breq	.+2      	; 0x22c <vCoRoutineSchedule+0x136>
     22a:	a1 cf       	rjmp	.-190    	; 0x16e <vCoRoutineSchedule+0x78>
     22c:	90 93 68 02 	sts	0x0268, r25
     230:	80 93 67 02 	sts	0x0267, r24
     234:	90 91 66 02 	lds	r25, 0x0266
     238:	29 e0       	ldi	r18, 0x09	; 9
     23a:	06 c0       	rjmp	.+12     	; 0x248 <vCoRoutineSchedule+0x152>
     23c:	99 23       	and	r25, r25
     23e:	19 f4       	brne	.+6      	; 0x246 <vCoRoutineSchedule+0x150>
     240:	10 92 66 02 	sts	0x0266, r1
     244:	32 c0       	rjmp	.+100    	; 0x2aa <vCoRoutineSchedule+0x1b4>
     246:	91 50       	subi	r25, 0x01	; 1
     248:	92 9f       	mul	r25, r18
     24a:	d0 01       	movw	r26, r0
     24c:	11 24       	eor	r1, r1
     24e:	a3 59       	subi	r26, 0x93	; 147
     250:	bd 4f       	sbci	r27, 0xFD	; 253
     252:	8c 91       	ld	r24, X
     254:	88 23       	and	r24, r24
     256:	91 f3       	breq	.-28     	; 0x23c <vCoRoutineSchedule+0x146>
     258:	90 93 66 02 	sts	0x0266, r25
     25c:	11 96       	adiw	r26, 0x01	; 1
     25e:	ed 91       	ld	r30, X+
     260:	fc 91       	ld	r31, X
     262:	12 97       	sbiw	r26, 0x02	; 2
     264:	02 80       	ldd	r0, Z+2	; 0x02
     266:	f3 81       	ldd	r31, Z+3	; 0x03
     268:	e0 2d       	mov	r30, r0
     26a:	12 96       	adiw	r26, 0x02	; 2
     26c:	fc 93       	st	X, r31
     26e:	ee 93       	st	-X, r30
     270:	11 97       	sbiw	r26, 0x01	; 1
     272:	cd 01       	movw	r24, r26
     274:	03 96       	adiw	r24, 0x03	; 3
     276:	e8 17       	cp	r30, r24
     278:	f9 07       	cpc	r31, r25
     27a:	31 f4       	brne	.+12     	; 0x288 <vCoRoutineSchedule+0x192>
     27c:	82 81       	ldd	r24, Z+2	; 0x02
     27e:	93 81       	ldd	r25, Z+3	; 0x03
     280:	12 96       	adiw	r26, 0x02	; 2
     282:	9c 93       	st	X, r25
     284:	8e 93       	st	-X, r24
     286:	11 97       	sbiw	r26, 0x01	; 1
     288:	11 96       	adiw	r26, 0x01	; 1
     28a:	ed 91       	ld	r30, X+
     28c:	fc 91       	ld	r31, X
     28e:	12 97       	sbiw	r26, 0x02	; 2
     290:	06 80       	ldd	r0, Z+6	; 0x06
     292:	f7 81       	ldd	r31, Z+7	; 0x07
     294:	e0 2d       	mov	r30, r0
     296:	f0 93 65 02 	sts	0x0265, r31
     29a:	e0 93 64 02 	sts	0x0264, r30
     29e:	20 81       	ld	r18, Z
     2a0:	31 81       	ldd	r19, Z+1	; 0x01
     2a2:	cf 01       	movw	r24, r30
     2a4:	67 89       	ldd	r22, Z+23	; 0x17
     2a6:	f9 01       	movw	r30, r18
     2a8:	09 95       	icall
     2aa:	df 91       	pop	r29
     2ac:	cf 91       	pop	r28
     2ae:	1f 91       	pop	r17
     2b0:	0f 91       	pop	r16
     2b2:	ff 90       	pop	r15
     2b4:	08 95       	ret

000002b6 <vCoRoutineAddToDelayedList>:
     2b6:	0f 93       	push	r16
     2b8:	1f 93       	push	r17
     2ba:	cf 93       	push	r28
     2bc:	df 93       	push	r29
     2be:	eb 01       	movw	r28, r22
     2c0:	00 91 6b 02 	lds	r16, 0x026B
     2c4:	10 91 6c 02 	lds	r17, 0x026C
     2c8:	08 0f       	add	r16, r24
     2ca:	19 1f       	adc	r17, r25
     2cc:	80 91 64 02 	lds	r24, 0x0264
     2d0:	90 91 65 02 	lds	r25, 0x0265
     2d4:	02 96       	adiw	r24, 0x02	; 2
     2d6:	0e 94 08 04 	call	0x810	; 0x810 <uxListRemove>
     2da:	e0 91 64 02 	lds	r30, 0x0264
     2de:	f0 91 65 02 	lds	r31, 0x0265
     2e2:	13 83       	std	Z+3, r17	; 0x03
     2e4:	02 83       	std	Z+2, r16	; 0x02
     2e6:	80 91 6b 02 	lds	r24, 0x026B
     2ea:	90 91 6c 02 	lds	r25, 0x026C
     2ee:	bf 01       	movw	r22, r30
     2f0:	6e 5f       	subi	r22, 0xFE	; 254
     2f2:	7f 4f       	sbci	r23, 0xFF	; 255
     2f4:	08 17       	cp	r16, r24
     2f6:	19 07       	cpc	r17, r25
     2f8:	28 f4       	brcc	.+10     	; 0x304 <vCoRoutineAddToDelayedList+0x4e>
     2fa:	80 91 93 02 	lds	r24, 0x0293
     2fe:	90 91 94 02 	lds	r25, 0x0294
     302:	04 c0       	rjmp	.+8      	; 0x30c <vCoRoutineAddToDelayedList+0x56>
     304:	80 91 91 02 	lds	r24, 0x0291
     308:	90 91 92 02 	lds	r25, 0x0292
     30c:	0e 94 d6 03 	call	0x7ac	; 0x7ac <vListInsert>
     310:	20 97       	sbiw	r28, 0x00	; 0
     312:	49 f0       	breq	.+18     	; 0x326 <vCoRoutineAddToDelayedList+0x70>
     314:	60 91 64 02 	lds	r22, 0x0264
     318:	70 91 65 02 	lds	r23, 0x0265
     31c:	64 5f       	subi	r22, 0xF4	; 244
     31e:	7f 4f       	sbci	r23, 0xFF	; 255
     320:	ce 01       	movw	r24, r28
     322:	0e 94 d6 03 	call	0x7ac	; 0x7ac <vListInsert>
     326:	df 91       	pop	r29
     328:	cf 91       	pop	r28
     32a:	1f 91       	pop	r17
     32c:	0f 91       	pop	r16
     32e:	08 95       	ret

00000330 <xCoRoutineCreate>:
     330:	af 92       	push	r10
     332:	bf 92       	push	r11
     334:	cf 92       	push	r12
     336:	df 92       	push	r13
     338:	ef 92       	push	r14
     33a:	ff 92       	push	r15
     33c:	0f 93       	push	r16
     33e:	1f 93       	push	r17
     340:	cf 93       	push	r28
     342:	df 93       	push	r29
     344:	6c 01       	movw	r12, r24
     346:	b6 2e       	mov	r11, r22
     348:	a4 2e       	mov	r10, r20
     34a:	8a e1       	ldi	r24, 0x1A	; 26
     34c:	90 e0       	ldi	r25, 0x00	; 0
     34e:	0e 94 17 09 	call	0x122e	; 0x122e <pvPortMalloc>
     352:	ec 01       	movw	r28, r24
     354:	00 97       	sbiw	r24, 0x00	; 0
     356:	11 f4       	brne	.+4      	; 0x35c <xCoRoutineCreate+0x2c>
     358:	8f ef       	ldi	r24, 0xFF	; 255
     35a:	59 c0       	rjmp	.+178    	; 0x40e <xCoRoutineCreate+0xde>
     35c:	80 91 64 02 	lds	r24, 0x0264
     360:	90 91 65 02 	lds	r25, 0x0265
     364:	89 2b       	or	r24, r25
     366:	21 f5       	brne	.+72     	; 0x3b0 <xCoRoutineCreate+0x80>
     368:	d0 93 65 02 	sts	0x0265, r29
     36c:	c0 93 64 02 	sts	0x0264, r28
     370:	8d e6       	ldi	r24, 0x6D	; 109
     372:	92 e0       	ldi	r25, 0x02	; 2
     374:	0e 94 a3 03 	call	0x746	; 0x746 <vListInitialise>
     378:	86 e7       	ldi	r24, 0x76	; 118
     37a:	92 e0       	ldi	r25, 0x02	; 2
     37c:	0e 94 a3 03 	call	0x746	; 0x746 <vListInitialise>
     380:	2f e7       	ldi	r18, 0x7F	; 127
     382:	e2 2e       	mov	r14, r18
     384:	22 e0       	ldi	r18, 0x02	; 2
     386:	f2 2e       	mov	r15, r18
     388:	c7 01       	movw	r24, r14
     38a:	0e 94 a3 03 	call	0x746	; 0x746 <vListInitialise>
     38e:	08 e8       	ldi	r16, 0x88	; 136
     390:	12 e0       	ldi	r17, 0x02	; 2
     392:	c8 01       	movw	r24, r16
     394:	0e 94 a3 03 	call	0x746	; 0x746 <vListInitialise>
     398:	85 e9       	ldi	r24, 0x95	; 149
     39a:	92 e0       	ldi	r25, 0x02	; 2
     39c:	0e 94 a3 03 	call	0x746	; 0x746 <vListInitialise>
     3a0:	f0 92 92 02 	sts	0x0292, r15
     3a4:	e0 92 91 02 	sts	0x0291, r14
     3a8:	10 93 94 02 	sts	0x0294, r17
     3ac:	00 93 93 02 	sts	0x0293, r16
     3b0:	eb 2c       	mov	r14, r11
     3b2:	bb 20       	and	r11, r11
     3b4:	11 f0       	breq	.+4      	; 0x3ba <xCoRoutineCreate+0x8a>
     3b6:	ee 24       	eor	r14, r14
     3b8:	e3 94       	inc	r14
     3ba:	19 8e       	std	Y+25, r1	; 0x19
     3bc:	18 8e       	std	Y+24, r1	; 0x18
     3be:	ee 8a       	std	Y+22, r14	; 0x16
     3c0:	af 8a       	std	Y+23, r10	; 0x17
     3c2:	fe 01       	movw	r30, r28
     3c4:	c1 92       	st	Z+, r12
     3c6:	d1 92       	st	Z+, r13
     3c8:	8f 01       	movw	r16, r30
     3ca:	cf 01       	movw	r24, r30
     3cc:	0e 94 b3 03 	call	0x766	; 0x766 <vListInitialiseItem>
     3d0:	ce 01       	movw	r24, r28
     3d2:	0c 96       	adiw	r24, 0x0c	; 12
     3d4:	0e 94 b3 03 	call	0x766	; 0x766 <vListInitialiseItem>
     3d8:	d9 87       	std	Y+9, r29	; 0x09
     3da:	c8 87       	std	Y+8, r28	; 0x08
     3dc:	db 8b       	std	Y+19, r29	; 0x13
     3de:	ca 8b       	std	Y+18, r28	; 0x12
     3e0:	82 e0       	ldi	r24, 0x02	; 2
     3e2:	90 e0       	ldi	r25, 0x00	; 0
     3e4:	8e 19       	sub	r24, r14
     3e6:	91 09       	sbc	r25, r1
     3e8:	9d 87       	std	Y+13, r25	; 0x0d
     3ea:	8c 87       	std	Y+12, r24	; 0x0c
     3ec:	9e 89       	ldd	r25, Y+22	; 0x16
     3ee:	80 91 66 02 	lds	r24, 0x0266
     3f2:	89 17       	cp	r24, r25
     3f4:	10 f4       	brcc	.+4      	; 0x3fa <xCoRoutineCreate+0xca>
     3f6:	90 93 66 02 	sts	0x0266, r25
     3fa:	89 e0       	ldi	r24, 0x09	; 9
     3fc:	98 9f       	mul	r25, r24
     3fe:	c0 01       	movw	r24, r0
     400:	11 24       	eor	r1, r1
     402:	83 59       	subi	r24, 0x93	; 147
     404:	9d 4f       	sbci	r25, 0xFD	; 253
     406:	b8 01       	movw	r22, r16
     408:	0e 94 b7 03 	call	0x76e	; 0x76e <vListInsertEnd>
     40c:	81 e0       	ldi	r24, 0x01	; 1
     40e:	df 91       	pop	r29
     410:	cf 91       	pop	r28
     412:	1f 91       	pop	r17
     414:	0f 91       	pop	r16
     416:	ff 90       	pop	r15
     418:	ef 90       	pop	r14
     41a:	df 90       	pop	r13
     41c:	cf 90       	pop	r12
     41e:	bf 90       	pop	r11
     420:	af 90       	pop	r10
     422:	08 95       	ret

00000424 <xEventGroupClearBits>:
     424:	fc 01       	movw	r30, r24
     426:	0f b6       	in	r0, 0x3f	; 63
     428:	f8 94       	cli
     42a:	0f 92       	push	r0
     42c:	20 81       	ld	r18, Z
     42e:	31 81       	ldd	r19, Z+1	; 0x01
     430:	60 95       	com	r22
     432:	70 95       	com	r23
     434:	62 23       	and	r22, r18
     436:	73 23       	and	r23, r19
     438:	71 83       	std	Z+1, r23	; 0x01
     43a:	60 83       	st	Z, r22
     43c:	0f 90       	pop	r0
     43e:	0f be       	out	0x3f, r0	; 63
     440:	c9 01       	movw	r24, r18
     442:	08 95       	ret

00000444 <xEventGroupGetBitsFromISR>:
     444:	fc 01       	movw	r30, r24
     446:	80 81       	ld	r24, Z
     448:	91 81       	ldd	r25, Z+1	; 0x01
     44a:	08 95       	ret

0000044c <vEventGroupClearBitsCallback>:
     44c:	ba 01       	movw	r22, r20
     44e:	0e 94 12 02 	call	0x424	; 0x424 <xEventGroupClearBits>
     452:	08 95       	ret

00000454 <vEventGroupDelete>:
     454:	cf 93       	push	r28
     456:	df 93       	push	r29
     458:	ec 01       	movw	r28, r24
     45a:	0e 94 dc 12 	call	0x25b8	; 0x25b8 <vTaskSuspendAll>
     45e:	06 c0       	rjmp	.+12     	; 0x46c <vEventGroupDelete+0x18>
     460:	8f 81       	ldd	r24, Y+7	; 0x07
     462:	98 85       	ldd	r25, Y+8	; 0x08
     464:	60 e0       	ldi	r22, 0x00	; 0
     466:	72 e0       	ldi	r23, 0x02	; 2
     468:	0e 94 8b 14 	call	0x2916	; 0x2916 <vTaskRemoveFromUnorderedEventList>
     46c:	8a 81       	ldd	r24, Y+2	; 0x02
     46e:	88 23       	and	r24, r24
     470:	b9 f7       	brne	.-18     	; 0x460 <vEventGroupDelete+0xc>
     472:	ce 01       	movw	r24, r28
     474:	0e 94 07 09 	call	0x120e	; 0x120e <vPortFree>
     478:	0e 94 30 16 	call	0x2c60	; 0x2c60 <xTaskResumeAll>
     47c:	df 91       	pop	r29
     47e:	cf 91       	pop	r28
     480:	08 95       	ret

00000482 <xEventGroupSetBits>:
     482:	cf 92       	push	r12
     484:	df 92       	push	r13
     486:	ef 92       	push	r14
     488:	ff 92       	push	r15
     48a:	0f 93       	push	r16
     48c:	1f 93       	push	r17
     48e:	cf 93       	push	r28
     490:	df 93       	push	r29
     492:	8b 01       	movw	r16, r22
     494:	ec 01       	movw	r28, r24
     496:	85 e0       	ldi	r24, 0x05	; 5
     498:	e8 2e       	mov	r14, r24
     49a:	f1 2c       	mov	r15, r1
     49c:	ec 0e       	add	r14, r28
     49e:	fd 1e       	adc	r15, r29
     4a0:	0e 94 dc 12 	call	0x25b8	; 0x25b8 <vTaskSuspendAll>
     4a4:	ef 81       	ldd	r30, Y+7	; 0x07
     4a6:	f8 85       	ldd	r31, Y+8	; 0x08
     4a8:	88 81       	ld	r24, Y
     4aa:	99 81       	ldd	r25, Y+1	; 0x01
     4ac:	80 2b       	or	r24, r16
     4ae:	91 2b       	or	r25, r17
     4b0:	99 83       	std	Y+1, r25	; 0x01
     4b2:	88 83       	st	Y, r24
     4b4:	00 e0       	ldi	r16, 0x00	; 0
     4b6:	10 e0       	ldi	r17, 0x00	; 0
     4b8:	24 c0       	rjmp	.+72     	; 0x502 <xEventGroupSetBits+0x80>
     4ba:	d2 80       	ldd	r13, Z+2	; 0x02
     4bc:	c3 80       	ldd	r12, Z+3	; 0x03
     4be:	80 81       	ld	r24, Z
     4c0:	91 81       	ldd	r25, Z+1	; 0x01
     4c2:	bc 01       	movw	r22, r24
     4c4:	60 70       	andi	r22, 0x00	; 0
     4c6:	ac 01       	movw	r20, r24
     4c8:	50 70       	andi	r21, 0x00	; 0
     4ca:	28 81       	ld	r18, Y
     4cc:	39 81       	ldd	r19, Y+1	; 0x01
     4ce:	92 fd       	sbrc	r25, 2
     4d0:	05 c0       	rjmp	.+10     	; 0x4dc <xEventGroupSetBits+0x5a>
     4d2:	24 23       	and	r18, r20
     4d4:	35 23       	and	r19, r21
     4d6:	23 2b       	or	r18, r19
     4d8:	31 f4       	brne	.+12     	; 0x4e6 <xEventGroupSetBits+0x64>
     4da:	0f c0       	rjmp	.+30     	; 0x4fa <xEventGroupSetBits+0x78>
     4dc:	24 23       	and	r18, r20
     4de:	35 23       	and	r19, r21
     4e0:	24 17       	cp	r18, r20
     4e2:	35 07       	cpc	r19, r21
     4e4:	51 f4       	brne	.+20     	; 0x4fa <xEventGroupSetBits+0x78>
     4e6:	70 ff       	sbrs	r23, 0
     4e8:	02 c0       	rjmp	.+4      	; 0x4ee <xEventGroupSetBits+0x6c>
     4ea:	04 2b       	or	r16, r20
     4ec:	15 2b       	or	r17, r21
     4ee:	68 81       	ld	r22, Y
     4f0:	79 81       	ldd	r23, Y+1	; 0x01
     4f2:	72 60       	ori	r23, 0x02	; 2
     4f4:	cf 01       	movw	r24, r30
     4f6:	0e 94 8b 14 	call	0x2916	; 0x2916 <vTaskRemoveFromUnorderedEventList>
     4fa:	8d 2d       	mov	r24, r13
     4fc:	9c 2d       	mov	r25, r12
     4fe:	9c 01       	movw	r18, r24
     500:	f9 01       	movw	r30, r18
     502:	ee 15       	cp	r30, r14
     504:	ff 05       	cpc	r31, r15
     506:	c9 f6       	brne	.-78     	; 0x4ba <xEventGroupSetBits+0x38>
     508:	00 95       	com	r16
     50a:	10 95       	com	r17
     50c:	88 81       	ld	r24, Y
     50e:	99 81       	ldd	r25, Y+1	; 0x01
     510:	80 23       	and	r24, r16
     512:	91 23       	and	r25, r17
     514:	99 83       	std	Y+1, r25	; 0x01
     516:	88 83       	st	Y, r24
     518:	0e 94 30 16 	call	0x2c60	; 0x2c60 <xTaskResumeAll>
     51c:	88 81       	ld	r24, Y
     51e:	99 81       	ldd	r25, Y+1	; 0x01
     520:	df 91       	pop	r29
     522:	cf 91       	pop	r28
     524:	1f 91       	pop	r17
     526:	0f 91       	pop	r16
     528:	ff 90       	pop	r15
     52a:	ef 90       	pop	r14
     52c:	df 90       	pop	r13
     52e:	cf 90       	pop	r12
     530:	08 95       	ret

00000532 <vEventGroupSetBitsCallback>:
     532:	ba 01       	movw	r22, r20
     534:	0e 94 41 02 	call	0x482	; 0x482 <xEventGroupSetBits>
     538:	08 95       	ret

0000053a <xEventGroupWaitBits>:
     53a:	af 92       	push	r10
     53c:	bf 92       	push	r11
     53e:	cf 92       	push	r12
     540:	df 92       	push	r13
     542:	ef 92       	push	r14
     544:	ff 92       	push	r15
     546:	0f 93       	push	r16
     548:	1f 93       	push	r17
     54a:	cf 93       	push	r28
     54c:	df 93       	push	r29
     54e:	7b 01       	movw	r14, r22
     550:	a4 2e       	mov	r10, r20
     552:	b2 2e       	mov	r11, r18
     554:	68 01       	movw	r12, r16
     556:	8c 01       	movw	r16, r24
     558:	0e 94 dc 12 	call	0x25b8	; 0x25b8 <vTaskSuspendAll>
     55c:	f8 01       	movw	r30, r16
     55e:	20 81       	ld	r18, Z
     560:	31 81       	ldd	r19, Z+1	; 0x01
     562:	c7 01       	movw	r24, r14
     564:	82 23       	and	r24, r18
     566:	93 23       	and	r25, r19
     568:	bb 20       	and	r11, r11
     56a:	21 f4       	brne	.+8      	; 0x574 <xEventGroupWaitBits+0x3a>
     56c:	89 2b       	or	r24, r25
     56e:	09 f0       	breq	.+2      	; 0x572 <xEventGroupWaitBits+0x38>
     570:	5a c0       	rjmp	.+180    	; 0x626 <xEventGroupWaitBits+0xec>
     572:	04 c0       	rjmp	.+8      	; 0x57c <xEventGroupWaitBits+0x42>
     574:	8e 15       	cp	r24, r14
     576:	9f 05       	cpc	r25, r15
     578:	09 f4       	brne	.+2      	; 0x57c <xEventGroupWaitBits+0x42>
     57a:	55 c0       	rjmp	.+170    	; 0x626 <xEventGroupWaitBits+0xec>
     57c:	c1 14       	cp	r12, r1
     57e:	d1 04       	cpc	r13, r1
     580:	59 f4       	brne	.+22     	; 0x598 <xEventGroupWaitBits+0x5e>
     582:	e9 01       	movw	r28, r18
     584:	1b c0       	rjmp	.+54     	; 0x5bc <xEventGroupWaitBits+0x82>
     586:	c7 01       	movw	r24, r14
     588:	80 95       	com	r24
     58a:	90 95       	com	r25
     58c:	82 23       	and	r24, r18
     58e:	93 23       	and	r25, r19
     590:	f8 01       	movw	r30, r16
     592:	91 83       	std	Z+1, r25	; 0x01
     594:	80 83       	st	Z, r24
     596:	4a c0       	rjmp	.+148    	; 0x62c <xEventGroupWaitBits+0xf2>
     598:	aa 20       	and	r10, r10
     59a:	19 f0       	breq	.+6      	; 0x5a2 <xEventGroupWaitBits+0x68>
     59c:	60 e0       	ldi	r22, 0x00	; 0
     59e:	71 e0       	ldi	r23, 0x01	; 1
     5a0:	02 c0       	rjmp	.+4      	; 0x5a6 <xEventGroupWaitBits+0x6c>
     5a2:	60 e0       	ldi	r22, 0x00	; 0
     5a4:	70 e0       	ldi	r23, 0x00	; 0
     5a6:	b1 10       	cpse	r11, r1
     5a8:	74 60       	ori	r23, 0x04	; 4
     5aa:	6e 29       	or	r22, r14
     5ac:	7f 29       	or	r23, r15
     5ae:	c8 01       	movw	r24, r16
     5b0:	02 96       	adiw	r24, 0x02	; 2
     5b2:	a6 01       	movw	r20, r12
     5b4:	0e 94 dc 17 	call	0x2fb8	; 0x2fb8 <vTaskPlaceOnUnorderedEventList>
     5b8:	c0 e0       	ldi	r28, 0x00	; 0
     5ba:	d0 e0       	ldi	r29, 0x00	; 0
     5bc:	0e 94 30 16 	call	0x2c60	; 0x2c60 <xTaskResumeAll>
     5c0:	cd 28       	or	r12, r13
     5c2:	29 f1       	breq	.+74     	; 0x60e <xEventGroupWaitBits+0xd4>
     5c4:	88 23       	and	r24, r24
     5c6:	11 f4       	brne	.+4      	; 0x5cc <xEventGroupWaitBits+0x92>
     5c8:	0e 94 ae 08 	call	0x115c	; 0x115c <vPortYield>
     5cc:	0e 94 8c 13 	call	0x2718	; 0x2718 <uxTaskResetEventItemValue>
     5d0:	91 fd       	sbrc	r25, 1
     5d2:	1b c0       	rjmp	.+54     	; 0x60a <xEventGroupWaitBits+0xd0>
     5d4:	0f b6       	in	r0, 0x3f	; 63
     5d6:	f8 94       	cli
     5d8:	0f 92       	push	r0
     5da:	f8 01       	movw	r30, r16
     5dc:	80 81       	ld	r24, Z
     5de:	91 81       	ldd	r25, Z+1	; 0x01
     5e0:	97 01       	movw	r18, r14
     5e2:	28 23       	and	r18, r24
     5e4:	39 23       	and	r19, r25
     5e6:	bb 20       	and	r11, r11
     5e8:	19 f4       	brne	.+6      	; 0x5f0 <xEventGroupWaitBits+0xb6>
     5ea:	23 2b       	or	r18, r19
     5ec:	19 f5       	brne	.+70     	; 0x634 <xEventGroupWaitBits+0xfa>
     5ee:	0b c0       	rjmp	.+22     	; 0x606 <xEventGroupWaitBits+0xcc>
     5f0:	2e 15       	cp	r18, r14
     5f2:	3f 05       	cpc	r19, r15
     5f4:	41 f4       	brne	.+16     	; 0x606 <xEventGroupWaitBits+0xcc>
     5f6:	1e c0       	rjmp	.+60     	; 0x634 <xEventGroupWaitBits+0xfa>
     5f8:	e0 94       	com	r14
     5fa:	f0 94       	com	r15
     5fc:	e8 22       	and	r14, r24
     5fe:	f9 22       	and	r15, r25
     600:	f8 01       	movw	r30, r16
     602:	f1 82       	std	Z+1, r15	; 0x01
     604:	e0 82       	st	Z, r14
     606:	0f 90       	pop	r0
     608:	0f be       	out	0x3f, r0	; 63
     60a:	ec 01       	movw	r28, r24
     60c:	d0 70       	andi	r29, 0x00	; 0
     60e:	ce 01       	movw	r24, r28
     610:	df 91       	pop	r29
     612:	cf 91       	pop	r28
     614:	1f 91       	pop	r17
     616:	0f 91       	pop	r16
     618:	ff 90       	pop	r15
     61a:	ef 90       	pop	r14
     61c:	df 90       	pop	r13
     61e:	cf 90       	pop	r12
     620:	bf 90       	pop	r11
     622:	af 90       	pop	r10
     624:	08 95       	ret
     626:	aa 20       	and	r10, r10
     628:	09 f0       	breq	.+2      	; 0x62c <xEventGroupWaitBits+0xf2>
     62a:	ad cf       	rjmp	.-166    	; 0x586 <xEventGroupWaitBits+0x4c>
     62c:	e9 01       	movw	r28, r18
     62e:	cc 24       	eor	r12, r12
     630:	dd 24       	eor	r13, r13
     632:	c4 cf       	rjmp	.-120    	; 0x5bc <xEventGroupWaitBits+0x82>
     634:	aa 20       	and	r10, r10
     636:	01 f7       	brne	.-64     	; 0x5f8 <xEventGroupWaitBits+0xbe>
     638:	e6 cf       	rjmp	.-52     	; 0x606 <xEventGroupWaitBits+0xcc>

0000063a <xEventGroupSync>:
     63a:	8f 92       	push	r8
     63c:	9f 92       	push	r9
     63e:	af 92       	push	r10
     640:	bf 92       	push	r11
     642:	cf 92       	push	r12
     644:	df 92       	push	r13
     646:	ef 92       	push	r14
     648:	ff 92       	push	r15
     64a:	0f 93       	push	r16
     64c:	1f 93       	push	r17
     64e:	cf 93       	push	r28
     650:	df 93       	push	r29
     652:	f8 2e       	mov	r15, r24
     654:	e9 2e       	mov	r14, r25
     656:	8b 01       	movw	r16, r22
     658:	5a 01       	movw	r10, r20
     65a:	49 01       	movw	r8, r18
     65c:	c8 2e       	mov	r12, r24
     65e:	d9 2e       	mov	r13, r25
     660:	0e 94 dc 12 	call	0x25b8	; 0x25b8 <vTaskSuspendAll>
     664:	f6 01       	movw	r30, r12
     666:	c0 81       	ld	r28, Z
     668:	d1 81       	ldd	r29, Z+1	; 0x01
     66a:	8f 2d       	mov	r24, r15
     66c:	9e 2d       	mov	r25, r14
     66e:	b8 01       	movw	r22, r16
     670:	0e 94 41 02 	call	0x482	; 0x482 <xEventGroupSetBits>
     674:	c0 2b       	or	r28, r16
     676:	d1 2b       	or	r29, r17
     678:	c5 01       	movw	r24, r10
     67a:	8c 23       	and	r24, r28
     67c:	9d 23       	and	r25, r29
     67e:	8a 15       	cp	r24, r10
     680:	9b 05       	cpc	r25, r11
     682:	69 f4       	brne	.+26     	; 0x69e <xEventGroupSync+0x64>
     684:	95 01       	movw	r18, r10
     686:	20 95       	com	r18
     688:	30 95       	com	r19
     68a:	f6 01       	movw	r30, r12
     68c:	80 81       	ld	r24, Z
     68e:	91 81       	ldd	r25, Z+1	; 0x01
     690:	82 23       	and	r24, r18
     692:	93 23       	and	r25, r19
     694:	91 83       	std	Z+1, r25	; 0x01
     696:	80 83       	st	Z, r24
     698:	88 24       	eor	r8, r8
     69a:	99 24       	eor	r9, r9
     69c:	10 c0       	rjmp	.+32     	; 0x6be <xEventGroupSync+0x84>
     69e:	81 14       	cp	r8, r1
     6a0:	91 04       	cpc	r9, r1
     6a2:	51 f0       	breq	.+20     	; 0x6b8 <xEventGroupSync+0x7e>
     6a4:	b5 01       	movw	r22, r10
     6a6:	75 60       	ori	r23, 0x05	; 5
     6a8:	c6 01       	movw	r24, r12
     6aa:	02 96       	adiw	r24, 0x02	; 2
     6ac:	a4 01       	movw	r20, r8
     6ae:	0e 94 dc 17 	call	0x2fb8	; 0x2fb8 <vTaskPlaceOnUnorderedEventList>
     6b2:	c0 e0       	ldi	r28, 0x00	; 0
     6b4:	d0 e0       	ldi	r29, 0x00	; 0
     6b6:	03 c0       	rjmp	.+6      	; 0x6be <xEventGroupSync+0x84>
     6b8:	f6 01       	movw	r30, r12
     6ba:	c0 81       	ld	r28, Z
     6bc:	d1 81       	ldd	r29, Z+1	; 0x01
     6be:	0e 94 30 16 	call	0x2c60	; 0x2c60 <xTaskResumeAll>
     6c2:	89 28       	or	r8, r9
     6c4:	f9 f0       	breq	.+62     	; 0x704 <xEventGroupSync+0xca>
     6c6:	88 23       	and	r24, r24
     6c8:	11 f4       	brne	.+4      	; 0x6ce <xEventGroupSync+0x94>
     6ca:	0e 94 ae 08 	call	0x115c	; 0x115c <vPortYield>
     6ce:	0e 94 8c 13 	call	0x2718	; 0x2718 <uxTaskResetEventItemValue>
     6d2:	9c 01       	movw	r18, r24
     6d4:	91 fd       	sbrc	r25, 1
     6d6:	14 c0       	rjmp	.+40     	; 0x700 <xEventGroupSync+0xc6>
     6d8:	0f b6       	in	r0, 0x3f	; 63
     6da:	f8 94       	cli
     6dc:	0f 92       	push	r0
     6de:	f6 01       	movw	r30, r12
     6e0:	20 81       	ld	r18, Z
     6e2:	31 81       	ldd	r19, Z+1	; 0x01
     6e4:	c5 01       	movw	r24, r10
     6e6:	82 23       	and	r24, r18
     6e8:	93 23       	and	r25, r19
     6ea:	8a 15       	cp	r24, r10
     6ec:	9b 05       	cpc	r25, r11
     6ee:	31 f4       	brne	.+12     	; 0x6fc <xEventGroupSync+0xc2>
     6f0:	a0 94       	com	r10
     6f2:	b0 94       	com	r11
     6f4:	a2 22       	and	r10, r18
     6f6:	b3 22       	and	r11, r19
     6f8:	b1 82       	std	Z+1, r11	; 0x01
     6fa:	a0 82       	st	Z, r10
     6fc:	0f 90       	pop	r0
     6fe:	0f be       	out	0x3f, r0	; 63
     700:	e9 01       	movw	r28, r18
     702:	d0 70       	andi	r29, 0x00	; 0
     704:	ce 01       	movw	r24, r28
     706:	df 91       	pop	r29
     708:	cf 91       	pop	r28
     70a:	1f 91       	pop	r17
     70c:	0f 91       	pop	r16
     70e:	ff 90       	pop	r15
     710:	ef 90       	pop	r14
     712:	df 90       	pop	r13
     714:	cf 90       	pop	r12
     716:	bf 90       	pop	r11
     718:	af 90       	pop	r10
     71a:	9f 90       	pop	r9
     71c:	8f 90       	pop	r8
     71e:	08 95       	ret

00000720 <xEventGroupCreate>:
     720:	cf 93       	push	r28
     722:	df 93       	push	r29
     724:	8b e0       	ldi	r24, 0x0B	; 11
     726:	90 e0       	ldi	r25, 0x00	; 0
     728:	0e 94 17 09 	call	0x122e	; 0x122e <pvPortMalloc>
     72c:	ec 01       	movw	r28, r24
     72e:	00 97       	sbiw	r24, 0x00	; 0
     730:	31 f0       	breq	.+12     	; 0x73e <xEventGroupCreate+0x1e>
     732:	fc 01       	movw	r30, r24
     734:	11 92       	st	Z+, r1
     736:	11 92       	st	Z+, r1
     738:	cf 01       	movw	r24, r30
     73a:	0e 94 a3 03 	call	0x746	; 0x746 <vListInitialise>
     73e:	ce 01       	movw	r24, r28
     740:	df 91       	pop	r29
     742:	cf 91       	pop	r28
     744:	08 95       	ret

00000746 <vListInitialise>:
     746:	fc 01       	movw	r30, r24
     748:	9c 01       	movw	r18, r24
     74a:	2d 5f       	subi	r18, 0xFD	; 253
     74c:	3f 4f       	sbci	r19, 0xFF	; 255
     74e:	32 83       	std	Z+2, r19	; 0x02
     750:	21 83       	std	Z+1, r18	; 0x01
     752:	8f ef       	ldi	r24, 0xFF	; 255
     754:	9f ef       	ldi	r25, 0xFF	; 255
     756:	94 83       	std	Z+4, r25	; 0x04
     758:	83 83       	std	Z+3, r24	; 0x03
     75a:	36 83       	std	Z+6, r19	; 0x06
     75c:	25 83       	std	Z+5, r18	; 0x05
     75e:	30 87       	std	Z+8, r19	; 0x08
     760:	27 83       	std	Z+7, r18	; 0x07
     762:	10 82       	st	Z, r1
     764:	08 95       	ret

00000766 <vListInitialiseItem>:
     766:	fc 01       	movw	r30, r24
     768:	11 86       	std	Z+9, r1	; 0x09
     76a:	10 86       	std	Z+8, r1	; 0x08
     76c:	08 95       	ret

0000076e <vListInsertEnd>:
     76e:	ac 01       	movw	r20, r24
     770:	fc 01       	movw	r30, r24
     772:	a1 81       	ldd	r26, Z+1	; 0x01
     774:	b2 81       	ldd	r27, Z+2	; 0x02
     776:	fb 01       	movw	r30, r22
     778:	b3 83       	std	Z+3, r27	; 0x03
     77a:	a2 83       	std	Z+2, r26	; 0x02
     77c:	14 96       	adiw	r26, 0x04	; 4
     77e:	8d 91       	ld	r24, X+
     780:	9c 91       	ld	r25, X
     782:	15 97       	sbiw	r26, 0x05	; 5
     784:	95 83       	std	Z+5, r25	; 0x05
     786:	84 83       	std	Z+4, r24	; 0x04
     788:	14 96       	adiw	r26, 0x04	; 4
     78a:	ed 91       	ld	r30, X+
     78c:	fc 91       	ld	r31, X
     78e:	15 97       	sbiw	r26, 0x05	; 5
     790:	73 83       	std	Z+3, r23	; 0x03
     792:	62 83       	std	Z+2, r22	; 0x02
     794:	15 96       	adiw	r26, 0x05	; 5
     796:	7c 93       	st	X, r23
     798:	6e 93       	st	-X, r22
     79a:	14 97       	sbiw	r26, 0x04	; 4
     79c:	fb 01       	movw	r30, r22
     79e:	51 87       	std	Z+9, r21	; 0x09
     7a0:	40 87       	std	Z+8, r20	; 0x08
     7a2:	fa 01       	movw	r30, r20
     7a4:	80 81       	ld	r24, Z
     7a6:	8f 5f       	subi	r24, 0xFF	; 255
     7a8:	80 83       	st	Z, r24
     7aa:	08 95       	ret

000007ac <vListInsert>:
     7ac:	cf 93       	push	r28
     7ae:	df 93       	push	r29
     7b0:	9c 01       	movw	r18, r24
     7b2:	eb 01       	movw	r28, r22
     7b4:	48 81       	ld	r20, Y
     7b6:	59 81       	ldd	r21, Y+1	; 0x01
     7b8:	8f ef       	ldi	r24, 0xFF	; 255
     7ba:	4f 3f       	cpi	r20, 0xFF	; 255
     7bc:	58 07       	cpc	r21, r24
     7be:	21 f4       	brne	.+8      	; 0x7c8 <vListInsert+0x1c>
     7c0:	f9 01       	movw	r30, r18
     7c2:	a7 81       	ldd	r26, Z+7	; 0x07
     7c4:	b0 85       	ldd	r27, Z+8	; 0x08
     7c6:	0d c0       	rjmp	.+26     	; 0x7e2 <vListInsert+0x36>
     7c8:	d9 01       	movw	r26, r18
     7ca:	13 96       	adiw	r26, 0x03	; 3
     7cc:	12 96       	adiw	r26, 0x02	; 2
     7ce:	ed 91       	ld	r30, X+
     7d0:	fc 91       	ld	r31, X
     7d2:	13 97       	sbiw	r26, 0x03	; 3
     7d4:	80 81       	ld	r24, Z
     7d6:	91 81       	ldd	r25, Z+1	; 0x01
     7d8:	48 17       	cp	r20, r24
     7da:	59 07       	cpc	r21, r25
     7dc:	10 f0       	brcs	.+4      	; 0x7e2 <vListInsert+0x36>
     7de:	df 01       	movw	r26, r30
     7e0:	f5 cf       	rjmp	.-22     	; 0x7cc <vListInsert+0x20>
     7e2:	12 96       	adiw	r26, 0x02	; 2
     7e4:	ed 91       	ld	r30, X+
     7e6:	fc 91       	ld	r31, X
     7e8:	13 97       	sbiw	r26, 0x03	; 3
     7ea:	fb 83       	std	Y+3, r31	; 0x03
     7ec:	ea 83       	std	Y+2, r30	; 0x02
     7ee:	d5 83       	std	Z+5, r29	; 0x05
     7f0:	c4 83       	std	Z+4, r28	; 0x04
     7f2:	bd 83       	std	Y+5, r27	; 0x05
     7f4:	ac 83       	std	Y+4, r26	; 0x04
     7f6:	13 96       	adiw	r26, 0x03	; 3
     7f8:	dc 93       	st	X, r29
     7fa:	ce 93       	st	-X, r28
     7fc:	12 97       	sbiw	r26, 0x02	; 2
     7fe:	39 87       	std	Y+9, r19	; 0x09
     800:	28 87       	std	Y+8, r18	; 0x08
     802:	f9 01       	movw	r30, r18
     804:	80 81       	ld	r24, Z
     806:	8f 5f       	subi	r24, 0xFF	; 255
     808:	80 83       	st	Z, r24
     80a:	df 91       	pop	r29
     80c:	cf 91       	pop	r28
     80e:	08 95       	ret

00000810 <uxListRemove>:
     810:	cf 93       	push	r28
     812:	df 93       	push	r29
     814:	dc 01       	movw	r26, r24
     816:	18 96       	adiw	r26, 0x08	; 8
     818:	cd 91       	ld	r28, X+
     81a:	dc 91       	ld	r29, X
     81c:	19 97       	sbiw	r26, 0x09	; 9
     81e:	12 96       	adiw	r26, 0x02	; 2
     820:	4d 91       	ld	r20, X+
     822:	5c 91       	ld	r21, X
     824:	13 97       	sbiw	r26, 0x03	; 3
     826:	14 96       	adiw	r26, 0x04	; 4
     828:	8d 91       	ld	r24, X+
     82a:	9c 91       	ld	r25, X
     82c:	15 97       	sbiw	r26, 0x05	; 5
     82e:	fa 01       	movw	r30, r20
     830:	95 83       	std	Z+5, r25	; 0x05
     832:	84 83       	std	Z+4, r24	; 0x04
     834:	14 96       	adiw	r26, 0x04	; 4
     836:	2d 91       	ld	r18, X+
     838:	3c 91       	ld	r19, X
     83a:	15 97       	sbiw	r26, 0x05	; 5
     83c:	f9 01       	movw	r30, r18
     83e:	53 83       	std	Z+3, r21	; 0x03
     840:	42 83       	std	Z+2, r20	; 0x02
     842:	89 81       	ldd	r24, Y+1	; 0x01
     844:	9a 81       	ldd	r25, Y+2	; 0x02
     846:	8a 17       	cp	r24, r26
     848:	9b 07       	cpc	r25, r27
     84a:	11 f4       	brne	.+4      	; 0x850 <uxListRemove+0x40>
     84c:	3a 83       	std	Y+2, r19	; 0x02
     84e:	29 83       	std	Y+1, r18	; 0x01
     850:	19 96       	adiw	r26, 0x09	; 9
     852:	1c 92       	st	X, r1
     854:	1e 92       	st	-X, r1
     856:	18 97       	sbiw	r26, 0x08	; 8
     858:	88 81       	ld	r24, Y
     85a:	81 50       	subi	r24, 0x01	; 1
     85c:	88 83       	st	Y, r24
     85e:	88 81       	ld	r24, Y
     860:	df 91       	pop	r29
     862:	cf 91       	pop	r28
     864:	08 95       	ret

00000866 <USART_Init>:
     866:	1f 93       	push	r17
     868:	16 2f       	mov	r17, r22
     86a:	9c 01       	movw	r18, r24
     86c:	40 e0       	ldi	r20, 0x00	; 0
     86e:	50 e0       	ldi	r21, 0x00	; 0
     870:	60 e4       	ldi	r22, 0x40	; 64
     872:	72 e4       	ldi	r23, 0x42	; 66
     874:	8f e0       	ldi	r24, 0x0F	; 15
     876:	90 e0       	ldi	r25, 0x00	; 0
     878:	0e 94 d3 20 	call	0x41a6	; 0x41a6 <__divmodsi4>
     87c:	21 50       	subi	r18, 0x01	; 1
     87e:	30 40       	sbci	r19, 0x00	; 0
     880:	30 93 c5 00 	sts	0x00C5, r19
     884:	20 93 c4 00 	sts	0x00C4, r18
     888:	17 95       	ror	r17
     88a:	11 27       	eor	r17, r17
     88c:	17 95       	ror	r17
     88e:	18 61       	ori	r17, 0x18	; 24
     890:	10 93 c1 00 	sts	0x00C1, r17
     894:	8e e0       	ldi	r24, 0x0E	; 14
     896:	80 93 c2 00 	sts	0x00C2, r24
     89a:	1f 91       	pop	r17
     89c:	08 95       	ret

0000089e <My_USART_Init>:
     89e:	80 e1       	ldi	r24, 0x10	; 16
     8a0:	80 93 c4 00 	sts	0x00C4, r24
     8a4:	88 e9       	ldi	r24, 0x98	; 152
     8a6:	80 93 c1 00 	sts	0x00C1, r24
     8aa:	8e e0       	ldi	r24, 0x0E	; 14
     8ac:	80 93 c2 00 	sts	0x00C2, r24
     8b0:	08 95       	ret

000008b2 <put>:
     8b2:	98 2f       	mov	r25, r24
     8b4:	80 91 c0 00 	lds	r24, 0x00C0
     8b8:	85 ff       	sbrs	r24, 5
     8ba:	fc cf       	rjmp	.-8      	; 0x8b4 <put+0x2>
     8bc:	90 93 c6 00 	sts	0x00C6, r25
     8c0:	08 95       	ret

000008c2 <print>:
     8c2:	fc 01       	movw	r30, r24
     8c4:	07 c0       	rjmp	.+14     	; 0x8d4 <print+0x12>
     8c6:	80 91 c0 00 	lds	r24, 0x00C0
     8ca:	85 ff       	sbrs	r24, 5
     8cc:	fc cf       	rjmp	.-8      	; 0x8c6 <print+0x4>
     8ce:	90 93 c6 00 	sts	0x00C6, r25
     8d2:	31 96       	adiw	r30, 0x01	; 1
     8d4:	90 81       	ld	r25, Z
     8d6:	99 23       	and	r25, r25
     8d8:	b1 f7       	brne	.-20     	; 0x8c6 <print+0x4>
     8da:	08 95       	ret

000008dc <ibnc>:
     8dc:	9c 01       	movw	r18, r24
     8de:	fb 01       	movw	r30, r22
     8e0:	0d c0       	rjmp	.+26     	; 0x8fc <ibnc+0x20>
     8e2:	c9 01       	movw	r24, r18
     8e4:	6a e0       	ldi	r22, 0x0A	; 10
     8e6:	70 e0       	ldi	r23, 0x00	; 0
     8e8:	0e 94 c0 20 	call	0x4180	; 0x4180 <__divmodhi4>
     8ec:	80 5d       	subi	r24, 0xD0	; 208
     8ee:	81 93       	st	Z+, r24
     8f0:	c9 01       	movw	r24, r18
     8f2:	6a e0       	ldi	r22, 0x0A	; 10
     8f4:	70 e0       	ldi	r23, 0x00	; 0
     8f6:	0e 94 c0 20 	call	0x4180	; 0x4180 <__divmodhi4>
     8fa:	9b 01       	movw	r18, r22
     8fc:	21 15       	cp	r18, r1
     8fe:	31 05       	cpc	r19, r1
     900:	81 f7       	brne	.-32     	; 0x8e2 <ibnc+0x6>
     902:	10 82       	st	Z, r1
     904:	08 95       	ret

00000906 <cnbi>:
     906:	fc 01       	movw	r30, r24
     908:	20 e0       	ldi	r18, 0x00	; 0
     90a:	30 e0       	ldi	r19, 0x00	; 0
     90c:	13 c0       	rjmp	.+38     	; 0x934 <cnbi+0x2e>
     90e:	c9 01       	movw	r24, r18
     910:	63 e0       	ldi	r22, 0x03	; 3
     912:	88 0f       	add	r24, r24
     914:	99 1f       	adc	r25, r25
     916:	6a 95       	dec	r22
     918:	e1 f7       	brne	.-8      	; 0x912 <cnbi+0xc>
     91a:	22 0f       	add	r18, r18
     91c:	33 1f       	adc	r19, r19
     91e:	82 0f       	add	r24, r18
     920:	93 1f       	adc	r25, r19
     922:	24 2f       	mov	r18, r20
     924:	33 27       	eor	r19, r19
     926:	27 fd       	sbrc	r18, 7
     928:	30 95       	com	r19
     92a:	20 53       	subi	r18, 0x30	; 48
     92c:	30 40       	sbci	r19, 0x00	; 0
     92e:	28 0f       	add	r18, r24
     930:	39 1f       	adc	r19, r25
     932:	31 96       	adiw	r30, 0x01	; 1
     934:	40 81       	ld	r20, Z
     936:	44 23       	and	r20, r20
     938:	51 f7       	brne	.-44     	; 0x90e <cnbi+0x8>
     93a:	c9 01       	movw	r24, r18
     93c:	08 95       	ret

0000093e <printrec>:
     93e:	cf 93       	push	r28
     940:	df 93       	push	r29
     942:	ec 01       	movw	r28, r24
     944:	88 81       	ld	r24, Y
     946:	88 23       	and	r24, r24
     948:	59 f0       	breq	.+22     	; 0x960 <printrec+0x22>
     94a:	ce 01       	movw	r24, r28
     94c:	01 96       	adiw	r24, 0x01	; 1
     94e:	0e 94 9f 04 	call	0x93e	; 0x93e <printrec>
     952:	98 81       	ld	r25, Y
     954:	80 91 c0 00 	lds	r24, 0x00C0
     958:	85 ff       	sbrs	r24, 5
     95a:	fc cf       	rjmp	.-8      	; 0x954 <printrec+0x16>
     95c:	90 93 c6 00 	sts	0x00C6, r25
     960:	df 91       	pop	r29
     962:	cf 91       	pop	r28
     964:	08 95       	ret

00000966 <scan>:
     966:	80 91 c0 00 	lds	r24, 0x00C0
     96a:	87 ff       	sbrs	r24, 7
     96c:	fc cf       	rjmp	.-8      	; 0x966 <scan>
     96e:	80 91 c6 00 	lds	r24, 0x00C6
     972:	08 95       	ret

00000974 <sscan>:
     974:	fc 01       	movw	r30, r24
     976:	07 c0       	rjmp	.+14     	; 0x986 <sscan+0x12>
     978:	80 91 c0 00 	lds	r24, 0x00C0
     97c:	87 ff       	sbrs	r24, 7
     97e:	fc cf       	rjmp	.-8      	; 0x978 <sscan+0x4>
     980:	80 91 c6 00 	lds	r24, 0x00C6
     984:	81 93       	st	Z+, r24
     986:	82 91       	ld	r24, -Z
     988:	31 96       	adiw	r30, 0x01	; 1
     98a:	8a 30       	cpi	r24, 0x0A	; 10
     98c:	a9 f7       	brne	.-22     	; 0x978 <sscan+0x4>
     98e:	10 82       	st	Z, r1
     990:	08 95       	ret

00000992 <correio>:
     992:	80 91 c0 00 	lds	r24, 0x00C0
     996:	80 78       	andi	r24, 0x80	; 128
     998:	08 95       	ret

0000099a <__vector_13>:
     99a:	1f 92       	push	r1
     99c:	0f 92       	push	r0
     99e:	0f b6       	in	r0, 0x3f	; 63
     9a0:	0f 92       	push	r0
     9a2:	11 24       	eor	r1, r1
     9a4:	2f 93       	push	r18
     9a6:	3f 93       	push	r19
     9a8:	4f 93       	push	r20
     9aa:	5f 93       	push	r21
     9ac:	6f 93       	push	r22
     9ae:	7f 93       	push	r23
     9b0:	8f 93       	push	r24
     9b2:	9f 93       	push	r25
     9b4:	af 93       	push	r26
     9b6:	bf 93       	push	r27
     9b8:	ef 93       	push	r30
     9ba:	ff 93       	push	r31
     9bc:	80 e0       	ldi	r24, 0x00	; 0
     9be:	91 e0       	ldi	r25, 0x01	; 1
     9c0:	0e 94 61 04 	call	0x8c2	; 0x8c2 <print>
     9c4:	80 91 05 07 	lds	r24, 0x0705
     9c8:	90 e0       	ldi	r25, 0x00	; 0
     9ca:	68 e0       	ldi	r22, 0x08	; 8
     9cc:	77 e0       	ldi	r23, 0x07	; 7
     9ce:	0e 94 6e 04 	call	0x8dc	; 0x8dc <ibnc>
     9d2:	88 e0       	ldi	r24, 0x08	; 8
     9d4:	97 e0       	ldi	r25, 0x07	; 7
     9d6:	0e 94 9f 04 	call	0x93e	; 0x93e <printrec>
     9da:	80 91 c0 00 	lds	r24, 0x00C0
     9de:	85 ff       	sbrs	r24, 5
     9e0:	fc cf       	rjmp	.-8      	; 0x9da <__vector_13+0x40>
     9e2:	8a e0       	ldi	r24, 0x0A	; 10
     9e4:	80 93 c6 00 	sts	0x00C6, r24
     9e8:	ff 91       	pop	r31
     9ea:	ef 91       	pop	r30
     9ec:	bf 91       	pop	r27
     9ee:	af 91       	pop	r26
     9f0:	9f 91       	pop	r25
     9f2:	8f 91       	pop	r24
     9f4:	7f 91       	pop	r23
     9f6:	6f 91       	pop	r22
     9f8:	5f 91       	pop	r21
     9fa:	4f 91       	pop	r20
     9fc:	3f 91       	pop	r19
     9fe:	2f 91       	pop	r18
     a00:	0f 90       	pop	r0
     a02:	0f be       	out	0x3f, r0	; 63
     a04:	0f 90       	pop	r0
     a06:	1f 90       	pop	r1
     a08:	18 95       	reti

00000a0a <__vector_21>:
     a0a:	1f 92       	push	r1
     a0c:	0f 92       	push	r0
     a0e:	0f b6       	in	r0, 0x3f	; 63
     a10:	0f 92       	push	r0
     a12:	11 24       	eor	r1, r1
     a14:	2f 93       	push	r18
     a16:	3f 93       	push	r19
     a18:	4f 93       	push	r20
     a1a:	5f 93       	push	r21
     a1c:	6f 93       	push	r22
     a1e:	7f 93       	push	r23
     a20:	8f 93       	push	r24
     a22:	9f 93       	push	r25
     a24:	af 93       	push	r26
     a26:	bf 93       	push	r27
     a28:	ef 93       	push	r30
     a2a:	ff 93       	push	r31
     a2c:	80 91 79 00 	lds	r24, 0x0079
     a30:	80 93 05 07 	sts	0x0705, r24
     a34:	80 91 11 07 	lds	r24, 0x0711
     a38:	90 91 12 07 	lds	r25, 0x0712
     a3c:	60 e0       	ldi	r22, 0x00	; 0
     a3e:	70 e0       	ldi	r23, 0x00	; 0
     a40:	40 e0       	ldi	r20, 0x00	; 0
     a42:	50 e0       	ldi	r21, 0x00	; 0
     a44:	20 e0       	ldi	r18, 0x00	; 0
     a46:	0e 94 79 0d 	call	0x1af2	; 0x1af2 <xQueueGenericSend>
     a4a:	88 e0       	ldi	r24, 0x08	; 8
     a4c:	91 e0       	ldi	r25, 0x01	; 1
     a4e:	0e 94 61 04 	call	0x8c2	; 0x8c2 <print>
     a52:	80 91 05 07 	lds	r24, 0x0705
     a56:	90 e0       	ldi	r25, 0x00	; 0
     a58:	68 e0       	ldi	r22, 0x08	; 8
     a5a:	77 e0       	ldi	r23, 0x07	; 7
     a5c:	0e 94 6e 04 	call	0x8dc	; 0x8dc <ibnc>
     a60:	88 e0       	ldi	r24, 0x08	; 8
     a62:	97 e0       	ldi	r25, 0x07	; 7
     a64:	0e 94 9f 04 	call	0x93e	; 0x93e <printrec>
     a68:	80 91 c0 00 	lds	r24, 0x00C0
     a6c:	85 ff       	sbrs	r24, 5
     a6e:	fc cf       	rjmp	.-8      	; 0xa68 <__vector_21+0x5e>
     a70:	8a e0       	ldi	r24, 0x0A	; 10
     a72:	80 93 c6 00 	sts	0x00C6, r24
     a76:	ff 91       	pop	r31
     a78:	ef 91       	pop	r30
     a7a:	bf 91       	pop	r27
     a7c:	af 91       	pop	r26
     a7e:	9f 91       	pop	r25
     a80:	8f 91       	pop	r24
     a82:	7f 91       	pop	r23
     a84:	6f 91       	pop	r22
     a86:	5f 91       	pop	r21
     a88:	4f 91       	pop	r20
     a8a:	3f 91       	pop	r19
     a8c:	2f 91       	pop	r18
     a8e:	0f 90       	pop	r0
     a90:	0f be       	out	0x3f, r0	; 63
     a92:	0f 90       	pop	r0
     a94:	1f 90       	pop	r1
     a96:	18 95       	reti

00000a98 <__vector_18>:
     a98:	1f 92       	push	r1
     a9a:	0f 92       	push	r0
     a9c:	0f b6       	in	r0, 0x3f	; 63
     a9e:	0f 92       	push	r0
     aa0:	11 24       	eor	r1, r1
     aa2:	2f 93       	push	r18
     aa4:	3f 93       	push	r19
     aa6:	4f 93       	push	r20
     aa8:	5f 93       	push	r21
     aaa:	6f 93       	push	r22
     aac:	7f 93       	push	r23
     aae:	8f 93       	push	r24
     ab0:	9f 93       	push	r25
     ab2:	af 93       	push	r26
     ab4:	bf 93       	push	r27
     ab6:	ef 93       	push	r30
     ab8:	ff 93       	push	r31
     aba:	90 91 9e 02 	lds	r25, 0x029E
     abe:	80 91 c0 00 	lds	r24, 0x00C0
     ac2:	87 ff       	sbrs	r24, 7
     ac4:	fc cf       	rjmp	.-8      	; 0xabe <__vector_18+0x26>
     ac6:	80 91 c6 00 	lds	r24, 0x00C6
     aca:	e9 2f       	mov	r30, r25
     acc:	f0 e0       	ldi	r31, 0x00	; 0
     ace:	e4 5f       	subi	r30, 0xF4	; 244
     ad0:	f8 4f       	sbci	r31, 0xF8	; 248
     ad2:	80 83       	st	Z, r24
     ad4:	e9 2f       	mov	r30, r25
     ad6:	ef 5f       	subi	r30, 0xFF	; 255
     ad8:	e0 93 9e 02 	sts	0x029E, r30
     adc:	8a 30       	cpi	r24, 0x0A	; 10
     ade:	b1 f4       	brne	.+44     	; 0xb0c <__vector_18+0x74>
     ae0:	f0 e0       	ldi	r31, 0x00	; 0
     ae2:	e5 5f       	subi	r30, 0xF5	; 245
     ae4:	f8 4f       	sbci	r31, 0xF8	; 248
     ae6:	10 82       	st	Z, r1
     ae8:	80 91 9f 02 	lds	r24, 0x029F
     aec:	81 60       	ori	r24, 0x01	; 1
     aee:	80 93 9f 02 	sts	0x029F, r24
     af2:	10 92 9e 02 	sts	0x029E, r1
     af6:	80 91 06 07 	lds	r24, 0x0706
     afa:	90 91 07 07 	lds	r25, 0x0707
     afe:	60 e0       	ldi	r22, 0x00	; 0
     b00:	70 e0       	ldi	r23, 0x00	; 0
     b02:	40 e0       	ldi	r20, 0x00	; 0
     b04:	50 e0       	ldi	r21, 0x00	; 0
     b06:	20 e0       	ldi	r18, 0x00	; 0
     b08:	0e 94 79 0d 	call	0x1af2	; 0x1af2 <xQueueGenericSend>
     b0c:	ff 91       	pop	r31
     b0e:	ef 91       	pop	r30
     b10:	bf 91       	pop	r27
     b12:	af 91       	pop	r26
     b14:	9f 91       	pop	r25
     b16:	8f 91       	pop	r24
     b18:	7f 91       	pop	r23
     b1a:	6f 91       	pop	r22
     b1c:	5f 91       	pop	r21
     b1e:	4f 91       	pop	r20
     b20:	3f 91       	pop	r19
     b22:	2f 91       	pop	r18
     b24:	0f 90       	pop	r0
     b26:	0f be       	out	0x3f, r0	; 63
     b28:	0f 90       	pop	r0
     b2a:	1f 90       	pop	r1
     b2c:	18 95       	reti

00000b2e <main>:
     b2e:	ef 92       	push	r14
     b30:	ff 92       	push	r15
     b32:	0f 93       	push	r16
     b34:	81 e0       	ldi	r24, 0x01	; 1
     b36:	60 e0       	ldi	r22, 0x00	; 0
     b38:	43 e0       	ldi	r20, 0x03	; 3
     b3a:	0e 94 66 0e 	call	0x1ccc	; 0x1ccc <xQueueGenericCreate>
     b3e:	90 93 07 07 	sts	0x0707, r25
     b42:	80 93 06 07 	sts	0x0706, r24
     b46:	00 97       	sbiw	r24, 0x00	; 0
     b48:	39 f0       	breq	.+14     	; 0xb58 <main+0x2a>
     b4a:	60 e0       	ldi	r22, 0x00	; 0
     b4c:	70 e0       	ldi	r23, 0x00	; 0
     b4e:	40 e0       	ldi	r20, 0x00	; 0
     b50:	50 e0       	ldi	r21, 0x00	; 0
     b52:	20 e0       	ldi	r18, 0x00	; 0
     b54:	0e 94 79 0d 	call	0x1af2	; 0x1af2 <xQueueGenericSend>
     b58:	81 e0       	ldi	r24, 0x01	; 1
     b5a:	60 e0       	ldi	r22, 0x00	; 0
     b5c:	43 e0       	ldi	r20, 0x03	; 3
     b5e:	0e 94 66 0e 	call	0x1ccc	; 0x1ccc <xQueueGenericCreate>
     b62:	90 93 12 07 	sts	0x0712, r25
     b66:	80 93 11 07 	sts	0x0711, r24
     b6a:	00 97       	sbiw	r24, 0x00	; 0
     b6c:	39 f0       	breq	.+14     	; 0xb7c <main+0x4e>
     b6e:	60 e0       	ldi	r22, 0x00	; 0
     b70:	70 e0       	ldi	r23, 0x00	; 0
     b72:	40 e0       	ldi	r20, 0x00	; 0
     b74:	50 e0       	ldi	r21, 0x00	; 0
     b76:	20 e0       	ldi	r18, 0x00	; 0
     b78:	0e 94 79 0d 	call	0x1af2	; 0x1af2 <xQueueGenericSend>
     b7c:	80 e1       	ldi	r24, 0x10	; 16
     b7e:	80 93 c4 00 	sts	0x00C4, r24
     b82:	88 e9       	ldi	r24, 0x98	; 152
     b84:	80 93 c1 00 	sts	0x00C1, r24
     b88:	8e e0       	ldi	r24, 0x0E	; 14
     b8a:	80 93 c2 00 	sts	0x00C2, r24
     b8e:	81 e0       	ldi	r24, 0x01	; 1
     b90:	80 93 6f 00 	sts	0x006F, r24
     b94:	80 eb       	ldi	r24, 0xB0	; 176
     b96:	80 93 80 00 	sts	0x0080, r24
     b9a:	85 e1       	ldi	r24, 0x15	; 21
     b9c:	80 93 81 00 	sts	0x0081, r24
     ba0:	8f e2       	ldi	r24, 0x2F	; 47
     ba2:	80 93 87 00 	sts	0x0087, r24
     ba6:	8f ef       	ldi	r24, 0xFF	; 255
     ba8:	80 93 86 00 	sts	0x0086, r24
     bac:	9f e1       	ldi	r25, 0x1F	; 31
     bae:	90 93 89 00 	sts	0x0089, r25
     bb2:	80 93 88 00 	sts	0x0088, r24
     bb6:	90 93 8b 00 	sts	0x008B, r25
     bba:	80 93 8a 00 	sts	0x008A, r24
     bbe:	10 92 7e 00 	sts	0x007E, r1
     bc2:	81 e6       	ldi	r24, 0x61	; 97
     bc4:	80 93 7c 00 	sts	0x007C, r24
     bc8:	88 ee       	ldi	r24, 0xE8	; 232
     bca:	80 93 7a 00 	sts	0x007A, r24
     bce:	86 e0       	ldi	r24, 0x06	; 6
     bd0:	80 93 7b 00 	sts	0x007B, r24
     bd4:	84 b9       	out	0x04, r24	; 4
     bd6:	78 94       	sei
     bd8:	82 ea       	ldi	r24, 0xA2	; 162
     bda:	96 e0       	ldi	r25, 0x06	; 6
     bdc:	61 e1       	ldi	r22, 0x11	; 17
     bde:	71 e0       	ldi	r23, 0x01	; 1
     be0:	40 e8       	ldi	r20, 0x80	; 128
     be2:	50 e0       	ldi	r21, 0x00	; 0
     be4:	20 e0       	ldi	r18, 0x00	; 0
     be6:	30 e0       	ldi	r19, 0x00	; 0
     be8:	03 e0       	ldi	r16, 0x03	; 3
     bea:	ee 24       	eor	r14, r14
     bec:	ff 24       	eor	r15, r15
     bee:	0e 94 ec 18 	call	0x31d8	; 0x31d8 <xTaskCreate>
     bf2:	8e e2       	ldi	r24, 0x2E	; 46
     bf4:	96 e0       	ldi	r25, 0x06	; 6
     bf6:	63 e1       	ldi	r22, 0x13	; 19
     bf8:	71 e0       	ldi	r23, 0x01	; 1
     bfa:	40 e8       	ldi	r20, 0x80	; 128
     bfc:	50 e0       	ldi	r21, 0x00	; 0
     bfe:	20 e0       	ldi	r18, 0x00	; 0
     c00:	30 e0       	ldi	r19, 0x00	; 0
     c02:	02 e0       	ldi	r16, 0x02	; 2
     c04:	0e 94 ec 18 	call	0x31d8	; 0x31d8 <xTaskCreate>
     c08:	82 e1       	ldi	r24, 0x12	; 18
     c0a:	96 e0       	ldi	r25, 0x06	; 6
     c0c:	65 e1       	ldi	r22, 0x15	; 21
     c0e:	71 e0       	ldi	r23, 0x01	; 1
     c10:	40 e8       	ldi	r20, 0x80	; 128
     c12:	50 e0       	ldi	r21, 0x00	; 0
     c14:	20 e0       	ldi	r18, 0x00	; 0
     c16:	30 e0       	ldi	r19, 0x00	; 0
     c18:	01 e0       	ldi	r16, 0x01	; 1
     c1a:	0e 94 ec 18 	call	0x31d8	; 0x31d8 <xTaskCreate>
     c1e:	0e 94 e5 19 	call	0x33ca	; 0x33ca <vTaskStartScheduler>
     c22:	ff cf       	rjmp	.-2      	; 0xc22 <main+0xf4>

00000c24 <TaskBlinkBlueLED>:
     c24:	0f 93       	push	r16
     c26:	1f 93       	push	r17
     c28:	df 93       	push	r29
     c2a:	cf 93       	push	r28
     c2c:	00 d0       	rcall	.+0      	; 0xc2e <TaskBlinkBlueLED+0xa>
     c2e:	cd b7       	in	r28, 0x3d	; 61
     c30:	de b7       	in	r29, 0x3e	; 62
     c32:	25 9a       	sbi	0x04, 5	; 4
     c34:	0e 94 e2 12 	call	0x25c4	; 0x25c4 <xTaskGetTickCount>
     c38:	9a 83       	std	Y+2, r25	; 0x02
     c3a:	89 83       	std	Y+1, r24	; 0x01
     c3c:	8e 01       	movw	r16, r28
     c3e:	0f 5f       	subi	r16, 0xFF	; 255
     c40:	1f 4f       	sbci	r17, 0xFF	; 255
     c42:	2d 9a       	sbi	0x05, 5	; 5
     c44:	c8 01       	movw	r24, r16
     c46:	68 ee       	ldi	r22, 0xE8	; 232
     c48:	73 e0       	ldi	r23, 0x03	; 3
     c4a:	0e 94 08 18 	call	0x3010	; 0x3010 <vTaskDelayUntil>
     c4e:	2d 98       	cbi	0x05, 5	; 5
     c50:	c8 01       	movw	r24, r16
     c52:	68 ee       	ldi	r22, 0xE8	; 232
     c54:	73 e0       	ldi	r23, 0x03	; 3
     c56:	0e 94 08 18 	call	0x3010	; 0x3010 <vTaskDelayUntil>
     c5a:	f3 cf       	rjmp	.-26     	; 0xc42 <TaskBlinkBlueLED+0x1e>

00000c5c <Taskleuart>:
     c5c:	ff 92       	push	r15
     c5e:	0f 93       	push	r16
     c60:	1f 93       	push	r17
     c62:	df 93       	push	r29
     c64:	cf 93       	push	r28
     c66:	cd b7       	in	r28, 0x3d	; 61
     c68:	de b7       	in	r29, 0x3e	; 62
     c6a:	63 97       	sbiw	r28, 0x13	; 19
     c6c:	0f b6       	in	r0, 0x3f	; 63
     c6e:	f8 94       	cli
     c70:	de bf       	out	0x3e, r29	; 62
     c72:	0f be       	out	0x3f, r0	; 63
     c74:	cd bf       	out	0x3d, r28	; 61
     c76:	de 01       	movw	r26, r28
     c78:	11 96       	adiw	r26, 0x01	; 1
     c7a:	eb e2       	ldi	r30, 0x2B	; 43
     c7c:	f1 e0       	ldi	r31, 0x01	; 1
     c7e:	83 e1       	ldi	r24, 0x13	; 19
     c80:	01 90       	ld	r0, Z+
     c82:	0d 92       	st	X+, r0
     c84:	81 50       	subi	r24, 0x01	; 1
     c86:	e1 f7       	brne	.-8      	; 0xc80 <Taskleuart+0x24>
     c88:	8e 01       	movw	r16, r28
     c8a:	0f 5f       	subi	r16, 0xFF	; 255
     c8c:	1f 4f       	sbci	r17, 0xFF	; 255
     c8e:	b2 e0       	ldi	r27, 0x02	; 2
     c90:	fb 2e       	mov	r15, r27
     c92:	80 91 06 07 	lds	r24, 0x0706
     c96:	90 91 07 07 	lds	r25, 0x0707
     c9a:	6f ef       	ldi	r22, 0xFF	; 255
     c9c:	7f ef       	ldi	r23, 0xFF	; 255
     c9e:	0e 94 2f 0c 	call	0x185e	; 0x185e <xQueueSemaphoreTake>
     ca2:	80 91 9f 02 	lds	r24, 0x029F
     ca6:	81 30       	cpi	r24, 0x01	; 1
     ca8:	91 f5       	brne	.+100    	; 0xd0e <Taskleuart+0xb2>
     caa:	c8 01       	movw	r24, r16
     cac:	0e 94 61 04 	call	0x8c2	; 0x8c2 <print>
     cb0:	ec e0       	ldi	r30, 0x0C	; 12
     cb2:	f7 e0       	ldi	r31, 0x07	; 7
     cb4:	20 e0       	ldi	r18, 0x00	; 0
     cb6:	30 e0       	ldi	r19, 0x00	; 0
     cb8:	13 c0       	rjmp	.+38     	; 0xce0 <Taskleuart+0x84>
     cba:	c9 01       	movw	r24, r18
     cbc:	a3 e0       	ldi	r26, 0x03	; 3
     cbe:	88 0f       	add	r24, r24
     cc0:	99 1f       	adc	r25, r25
     cc2:	aa 95       	dec	r26
     cc4:	e1 f7       	brne	.-8      	; 0xcbe <Taskleuart+0x62>
     cc6:	22 0f       	add	r18, r18
     cc8:	33 1f       	adc	r19, r19
     cca:	82 0f       	add	r24, r18
     ccc:	93 1f       	adc	r25, r19
     cce:	24 2f       	mov	r18, r20
     cd0:	33 27       	eor	r19, r19
     cd2:	27 fd       	sbrc	r18, 7
     cd4:	30 95       	com	r19
     cd6:	20 53       	subi	r18, 0x30	; 48
     cd8:	30 40       	sbci	r19, 0x00	; 0
     cda:	28 0f       	add	r18, r24
     cdc:	39 1f       	adc	r19, r25
     cde:	31 96       	adiw	r30, 0x01	; 1
     ce0:	40 81       	ld	r20, Z
     ce2:	44 23       	and	r20, r20
     ce4:	51 f7       	brne	.-44     	; 0xcba <Taskleuart+0x5e>
     ce6:	20 93 a0 02 	sts	0x02A0, r18
     cea:	10 92 a1 02 	sts	0x02A1, r1
     cee:	82 2f       	mov	r24, r18
     cf0:	90 e0       	ldi	r25, 0x00	; 0
     cf2:	68 e0       	ldi	r22, 0x08	; 8
     cf4:	77 e0       	ldi	r23, 0x07	; 7
     cf6:	0e 94 6e 04 	call	0x8dc	; 0x8dc <ibnc>
     cfa:	88 e0       	ldi	r24, 0x08	; 8
     cfc:	97 e0       	ldi	r25, 0x07	; 7
     cfe:	0e 94 9f 04 	call	0x93e	; 0x93e <printrec>
     d02:	87 e1       	ldi	r24, 0x17	; 23
     d04:	91 e0       	ldi	r25, 0x01	; 1
     d06:	0e 94 61 04 	call	0x8c2	; 0x8c2 <print>
     d0a:	f0 92 9f 02 	sts	0x029F, r15
     d0e:	80 91 9f 02 	lds	r24, 0x029F
     d12:	83 30       	cpi	r24, 0x03	; 3
     d14:	09 f0       	breq	.+2      	; 0xd18 <Taskleuart+0xbc>
     d16:	bd cf       	rjmp	.-134    	; 0xc92 <Taskleuart+0x36>
     d18:	80 91 0c 07 	lds	r24, 0x070C
     d1c:	89 37       	cpi	r24, 0x79	; 121
     d1e:	59 f4       	brne	.+22     	; 0xd36 <Taskleuart+0xda>
     d20:	80 91 a0 02 	lds	r24, 0x02A0
     d24:	90 91 a1 02 	lds	r25, 0x02A1
     d28:	90 93 a3 02 	sts	0x02A3, r25
     d2c:	80 93 a2 02 	sts	0x02A2, r24
     d30:	81 e2       	ldi	r24, 0x21	; 33
     d32:	91 e0       	ldi	r25, 0x01	; 1
     d34:	02 c0       	rjmp	.+4      	; 0xd3a <Taskleuart+0xde>
     d36:	86 e2       	ldi	r24, 0x26	; 38
     d38:	91 e0       	ldi	r25, 0x01	; 1
     d3a:	0e 94 61 04 	call	0x8c2	; 0x8c2 <print>
     d3e:	10 92 9f 02 	sts	0x029F, r1
     d42:	a7 cf       	rjmp	.-178    	; 0xc92 <Taskleuart+0x36>

00000d44 <TaskPi>:
     d44:	2f 92       	push	r2
     d46:	3f 92       	push	r3
     d48:	5f 92       	push	r5
     d4a:	6f 92       	push	r6
     d4c:	7f 92       	push	r7
     d4e:	8f 92       	push	r8
     d50:	9f 92       	push	r9
     d52:	af 92       	push	r10
     d54:	bf 92       	push	r11
     d56:	cf 92       	push	r12
     d58:	df 92       	push	r13
     d5a:	ef 92       	push	r14
     d5c:	ff 92       	push	r15
     d5e:	0f 93       	push	r16
     d60:	1f 93       	push	r17
     d62:	cf 93       	push	r28
     d64:	df 93       	push	r29
     d66:	9a e0       	ldi	r25, 0x0A	; 10
     d68:	59 2e       	mov	r5, r25
     d6a:	8f ef       	ldi	r24, 0xFF	; 255
     d6c:	28 2e       	mov	r2, r24
     d6e:	8f e2       	ldi	r24, 0x2F	; 47
     d70:	38 2e       	mov	r3, r24
     d72:	80 91 11 07 	lds	r24, 0x0711
     d76:	90 91 12 07 	lds	r25, 0x0712
     d7a:	6f ef       	ldi	r22, 0xFF	; 255
     d7c:	7f ef       	ldi	r23, 0xFF	; 255
     d7e:	0e 94 2f 0c 	call	0x185e	; 0x185e <xQueueSemaphoreTake>
     d82:	20 91 05 07 	lds	r18, 0x0705
     d86:	60 91 a2 02 	lds	r22, 0x02A2
     d8a:	70 91 a3 02 	lds	r23, 0x02A3
     d8e:	62 1b       	sub	r22, r18
     d90:	71 09       	sbc	r23, r1
     d92:	88 27       	eor	r24, r24
     d94:	77 fd       	sbrc	r23, 7
     d96:	80 95       	com	r24
     d98:	98 2f       	mov	r25, r24
     d9a:	0e 94 19 1e 	call	0x3c32	; 0x3c32 <__floatsisf>
     d9e:	3b 01       	movw	r6, r22
     da0:	4c 01       	movw	r8, r24
     da2:	0e 94 0d 1a 	call	0x341a	; 0x341a <__fixunssfsi>
     da6:	dc 01       	movw	r26, r24
     da8:	cb 01       	movw	r24, r22
     daa:	68 e0       	ldi	r22, 0x08	; 8
     dac:	77 e0       	ldi	r23, 0x07	; 7
     dae:	0e 94 6e 04 	call	0x8dc	; 0x8dc <ibnc>
     db2:	8e e3       	ldi	r24, 0x3E	; 62
     db4:	91 e0       	ldi	r25, 0x01	; 1
     db6:	0e 94 61 04 	call	0x8c2	; 0x8c2 <print>
     dba:	88 e0       	ldi	r24, 0x08	; 8
     dbc:	97 e0       	ldi	r25, 0x07	; 7
     dbe:	0e 94 9f 04 	call	0x93e	; 0x93e <printrec>
     dc2:	80 91 c0 00 	lds	r24, 0x00C0
     dc6:	85 ff       	sbrs	r24, 5
     dc8:	fc cf       	rjmp	.-8      	; 0xdc2 <TaskPi+0x7e>
     dca:	50 92 c6 00 	sts	0x00C6, r5
     dce:	c4 01       	movw	r24, r8
     dd0:	b3 01       	movw	r22, r6
     dd2:	a6 01       	movw	r20, r12
     dd4:	95 01       	movw	r18, r10
     dd6:	0e 94 b6 1b 	call	0x376c	; 0x376c <__addsf3>
     dda:	20 e0       	ldi	r18, 0x00	; 0
     ddc:	30 e0       	ldi	r19, 0x00	; 0
     dde:	4a ef       	ldi	r20, 0xFA	; 250
     de0:	54 e4       	ldi	r21, 0x44	; 68
     de2:	0e 94 dd 1c 	call	0x39ba	; 0x39ba <__divsf3>
     de6:	9b 01       	movw	r18, r22
     de8:	ac 01       	movw	r20, r24
     dea:	c8 01       	movw	r24, r16
     dec:	b7 01       	movw	r22, r14
     dee:	0e 94 b6 1b 	call	0x376c	; 0x376c <__addsf3>
     df2:	7b 01       	movw	r14, r22
     df4:	8c 01       	movw	r16, r24
     df6:	20 e0       	ldi	r18, 0x00	; 0
     df8:	30 e0       	ldi	r19, 0x00	; 0
     dfa:	40 e0       	ldi	r20, 0x00	; 0
     dfc:	50 e0       	ldi	r21, 0x00	; 0
     dfe:	0e 94 e9 1d 	call	0x3bd2	; 0x3bd2 <__ltsf2>
     e02:	88 23       	and	r24, r24
     e04:	5c f4       	brge	.+22     	; 0xe1c <TaskPi+0xd8>
     e06:	0f 2e       	mov	r0, r31
     e08:	f0 e0       	ldi	r31, 0x00	; 0
     e0a:	ef 2e       	mov	r14, r31
     e0c:	f0 e0       	ldi	r31, 0x00	; 0
     e0e:	ff 2e       	mov	r15, r31
     e10:	f0 e0       	ldi	r31, 0x00	; 0
     e12:	0f 2f       	mov	r16, r31
     e14:	f0 e0       	ldi	r31, 0x00	; 0
     e16:	1f 2f       	mov	r17, r31
     e18:	f0 2d       	mov	r31, r0
     e1a:	14 c0       	rjmp	.+40     	; 0xe44 <TaskPi+0x100>
     e1c:	c8 01       	movw	r24, r16
     e1e:	b7 01       	movw	r22, r14
     e20:	23 e3       	ldi	r18, 0x33	; 51
     e22:	33 e3       	ldi	r19, 0x33	; 51
     e24:	43 eb       	ldi	r20, 0xB3	; 179
     e26:	5e e3       	ldi	r21, 0x3E	; 62
     e28:	0e 94 89 1d 	call	0x3b12	; 0x3b12 <__gtsf2>
     e2c:	18 16       	cp	r1, r24
     e2e:	54 f4       	brge	.+20     	; 0xe44 <TaskPi+0x100>
     e30:	0f 2e       	mov	r0, r31
     e32:	f3 e3       	ldi	r31, 0x33	; 51
     e34:	ef 2e       	mov	r14, r31
     e36:	f3 e3       	ldi	r31, 0x33	; 51
     e38:	ff 2e       	mov	r15, r31
     e3a:	f3 eb       	ldi	r31, 0xB3	; 179
     e3c:	0f 2f       	mov	r16, r31
     e3e:	fe e3       	ldi	r31, 0x3E	; 62
     e40:	1f 2f       	mov	r17, r31
     e42:	f0 2d       	mov	r31, r0
     e44:	c8 01       	movw	r24, r16
     e46:	b7 01       	movw	r22, r14
     e48:	20 e0       	ldi	r18, 0x00	; 0
     e4a:	3c ef       	ldi	r19, 0xFC	; 252
     e4c:	4f e3       	ldi	r20, 0x3F	; 63
     e4e:	56 e4       	ldi	r21, 0x46	; 70
     e50:	0e 94 e3 1b 	call	0x37c6	; 0x37c6 <__mulsf3>
     e54:	0e 94 77 1e 	call	0x3cee	; 0x3cee <__fixsfsi>
     e58:	eb 01       	movw	r28, r22
     e5a:	61 01       	movw	r12, r2
     e5c:	c6 1a       	sub	r12, r22
     e5e:	d7 0a       	sbc	r13, r23
     e60:	c8 01       	movw	r24, r16
     e62:	b7 01       	movw	r22, r14
     e64:	0e 94 0d 1a 	call	0x341a	; 0x341a <__fixunssfsi>
     e68:	dc 01       	movw	r26, r24
     e6a:	cb 01       	movw	r24, r22
     e6c:	68 e0       	ldi	r22, 0x08	; 8
     e6e:	77 e0       	ldi	r23, 0x07	; 7
     e70:	0e 94 6e 04 	call	0x8dc	; 0x8dc <ibnc>
     e74:	81 e4       	ldi	r24, 0x41	; 65
     e76:	91 e0       	ldi	r25, 0x01	; 1
     e78:	0e 94 61 04 	call	0x8c2	; 0x8c2 <print>
     e7c:	88 e0       	ldi	r24, 0x08	; 8
     e7e:	97 e0       	ldi	r25, 0x07	; 7
     e80:	0e 94 9f 04 	call	0x93e	; 0x93e <printrec>
     e84:	80 91 c0 00 	lds	r24, 0x00C0
     e88:	85 ff       	sbrs	r24, 5
     e8a:	fc cf       	rjmp	.-8      	; 0xe84 <TaskPi+0x140>
     e8c:	50 92 c6 00 	sts	0x00C6, r5
     e90:	ce 01       	movw	r24, r28
     e92:	68 e0       	ldi	r22, 0x08	; 8
     e94:	77 e0       	ldi	r23, 0x07	; 7
     e96:	0e 94 6e 04 	call	0x8dc	; 0x8dc <ibnc>
     e9a:	84 e4       	ldi	r24, 0x44	; 68
     e9c:	91 e0       	ldi	r25, 0x01	; 1
     e9e:	0e 94 61 04 	call	0x8c2	; 0x8c2 <print>
     ea2:	88 e0       	ldi	r24, 0x08	; 8
     ea4:	97 e0       	ldi	r25, 0x07	; 7
     ea6:	0e 94 9f 04 	call	0x93e	; 0x93e <printrec>
     eaa:	80 91 c0 00 	lds	r24, 0x00C0
     eae:	85 ff       	sbrs	r24, 5
     eb0:	fc cf       	rjmp	.-8      	; 0xeaa <TaskPi+0x166>
     eb2:	50 92 c6 00 	sts	0x00C6, r5
     eb6:	c6 01       	movw	r24, r12
     eb8:	68 e0       	ldi	r22, 0x08	; 8
     eba:	77 e0       	ldi	r23, 0x07	; 7
     ebc:	0e 94 6e 04 	call	0x8dc	; 0x8dc <ibnc>
     ec0:	87 e4       	ldi	r24, 0x47	; 71
     ec2:	91 e0       	ldi	r25, 0x01	; 1
     ec4:	0e 94 61 04 	call	0x8c2	; 0x8c2 <print>
     ec8:	88 e0       	ldi	r24, 0x08	; 8
     eca:	97 e0       	ldi	r25, 0x07	; 7
     ecc:	0e 94 9f 04 	call	0x93e	; 0x93e <printrec>
     ed0:	80 91 c0 00 	lds	r24, 0x00C0
     ed4:	85 ff       	sbrs	r24, 5
     ed6:	fc cf       	rjmp	.-8      	; 0xed0 <TaskPi+0x18c>
     ed8:	50 92 c6 00 	sts	0x00C6, r5
     edc:	d0 93 89 00 	sts	0x0089, r29
     ee0:	c0 93 88 00 	sts	0x0088, r28
     ee4:	d0 92 8b 00 	sts	0x008B, r13
     ee8:	c0 92 8a 00 	sts	0x008A, r12
     eec:	80 91 89 00 	lds	r24, 0x0089
     ef0:	90 e0       	ldi	r25, 0x00	; 0
     ef2:	68 e0       	ldi	r22, 0x08	; 8
     ef4:	77 e0       	ldi	r23, 0x07	; 7
     ef6:	0e 94 6e 04 	call	0x8dc	; 0x8dc <ibnc>
     efa:	8a e4       	ldi	r24, 0x4A	; 74
     efc:	91 e0       	ldi	r25, 0x01	; 1
     efe:	0e 94 61 04 	call	0x8c2	; 0x8c2 <print>
     f02:	88 e0       	ldi	r24, 0x08	; 8
     f04:	97 e0       	ldi	r25, 0x07	; 7
     f06:	0e 94 9f 04 	call	0x93e	; 0x93e <printrec>
     f0a:	80 91 c0 00 	lds	r24, 0x00C0
     f0e:	85 ff       	sbrs	r24, 5
     f10:	fc cf       	rjmp	.-8      	; 0xf0a <TaskPi+0x1c6>
     f12:	50 92 c6 00 	sts	0x00C6, r5
     f16:	80 91 88 00 	lds	r24, 0x0088
     f1a:	90 e0       	ldi	r25, 0x00	; 0
     f1c:	68 e0       	ldi	r22, 0x08	; 8
     f1e:	77 e0       	ldi	r23, 0x07	; 7
     f20:	0e 94 6e 04 	call	0x8dc	; 0x8dc <ibnc>
     f24:	8d e4       	ldi	r24, 0x4D	; 77
     f26:	91 e0       	ldi	r25, 0x01	; 1
     f28:	0e 94 61 04 	call	0x8c2	; 0x8c2 <print>
     f2c:	88 e0       	ldi	r24, 0x08	; 8
     f2e:	97 e0       	ldi	r25, 0x07	; 7
     f30:	0e 94 9f 04 	call	0x93e	; 0x93e <printrec>
     f34:	80 91 c0 00 	lds	r24, 0x00C0
     f38:	85 ff       	sbrs	r24, 5
     f3a:	fc cf       	rjmp	.-8      	; 0xf34 <TaskPi+0x1f0>
     f3c:	50 92 c6 00 	sts	0x00C6, r5
     f40:	80 91 8b 00 	lds	r24, 0x008B
     f44:	90 e0       	ldi	r25, 0x00	; 0
     f46:	68 e0       	ldi	r22, 0x08	; 8
     f48:	77 e0       	ldi	r23, 0x07	; 7
     f4a:	0e 94 6e 04 	call	0x8dc	; 0x8dc <ibnc>
     f4e:	80 e5       	ldi	r24, 0x50	; 80
     f50:	91 e0       	ldi	r25, 0x01	; 1
     f52:	0e 94 61 04 	call	0x8c2	; 0x8c2 <print>
     f56:	88 e0       	ldi	r24, 0x08	; 8
     f58:	97 e0       	ldi	r25, 0x07	; 7
     f5a:	0e 94 9f 04 	call	0x93e	; 0x93e <printrec>
     f5e:	80 91 c0 00 	lds	r24, 0x00C0
     f62:	85 ff       	sbrs	r24, 5
     f64:	fc cf       	rjmp	.-8      	; 0xf5e <TaskPi+0x21a>
     f66:	50 92 c6 00 	sts	0x00C6, r5
     f6a:	80 91 8a 00 	lds	r24, 0x008A
     f6e:	90 e0       	ldi	r25, 0x00	; 0
     f70:	68 e0       	ldi	r22, 0x08	; 8
     f72:	77 e0       	ldi	r23, 0x07	; 7
     f74:	0e 94 6e 04 	call	0x8dc	; 0x8dc <ibnc>
     f78:	83 e5       	ldi	r24, 0x53	; 83
     f7a:	91 e0       	ldi	r25, 0x01	; 1
     f7c:	0e 94 61 04 	call	0x8c2	; 0x8c2 <print>
     f80:	88 e0       	ldi	r24, 0x08	; 8
     f82:	97 e0       	ldi	r25, 0x07	; 7
     f84:	0e 94 9f 04 	call	0x93e	; 0x93e <printrec>
     f88:	80 91 c0 00 	lds	r24, 0x00C0
     f8c:	85 ff       	sbrs	r24, 5
     f8e:	fc cf       	rjmp	.-8      	; 0xf88 <TaskPi+0x244>
     f90:	50 92 c6 00 	sts	0x00C6, r5
     f94:	64 01       	movw	r12, r8
     f96:	53 01       	movw	r10, r6
     f98:	ec ce       	rjmp	.-552    	; 0xd72 <TaskPi+0x2e>

00000f9a <pxPortInitialiseStack>:
     f9a:	fc 01       	movw	r30, r24
     f9c:	91 e1       	ldi	r25, 0x11	; 17
     f9e:	90 83       	st	Z, r25
     fa0:	22 e2       	ldi	r18, 0x22	; 34
     fa2:	22 93       	st	-Z, r18
     fa4:	83 e3       	ldi	r24, 0x33	; 51
     fa6:	82 93       	st	-Z, r24
     fa8:	62 93       	st	-Z, r22
     faa:	72 93       	st	-Z, r23
     fac:	12 92       	st	-Z, r1
     fae:	80 e8       	ldi	r24, 0x80	; 128
     fb0:	82 93       	st	-Z, r24
     fb2:	12 92       	st	-Z, r1
     fb4:	82 e0       	ldi	r24, 0x02	; 2
     fb6:	82 93       	st	-Z, r24
     fb8:	83 e0       	ldi	r24, 0x03	; 3
     fba:	82 93       	st	-Z, r24
     fbc:	84 e0       	ldi	r24, 0x04	; 4
     fbe:	82 93       	st	-Z, r24
     fc0:	85 e0       	ldi	r24, 0x05	; 5
     fc2:	82 93       	st	-Z, r24
     fc4:	86 e0       	ldi	r24, 0x06	; 6
     fc6:	82 93       	st	-Z, r24
     fc8:	87 e0       	ldi	r24, 0x07	; 7
     fca:	82 93       	st	-Z, r24
     fcc:	88 e0       	ldi	r24, 0x08	; 8
     fce:	82 93       	st	-Z, r24
     fd0:	89 e0       	ldi	r24, 0x09	; 9
     fd2:	82 93       	st	-Z, r24
     fd4:	80 e1       	ldi	r24, 0x10	; 16
     fd6:	82 93       	st	-Z, r24
     fd8:	92 93       	st	-Z, r25
     fda:	82 e1       	ldi	r24, 0x12	; 18
     fdc:	82 93       	st	-Z, r24
     fde:	83 e1       	ldi	r24, 0x13	; 19
     fe0:	82 93       	st	-Z, r24
     fe2:	84 e1       	ldi	r24, 0x14	; 20
     fe4:	82 93       	st	-Z, r24
     fe6:	85 e1       	ldi	r24, 0x15	; 21
     fe8:	82 93       	st	-Z, r24
     fea:	86 e1       	ldi	r24, 0x16	; 22
     fec:	82 93       	st	-Z, r24
     fee:	87 e1       	ldi	r24, 0x17	; 23
     ff0:	82 93       	st	-Z, r24
     ff2:	88 e1       	ldi	r24, 0x18	; 24
     ff4:	82 93       	st	-Z, r24
     ff6:	89 e1       	ldi	r24, 0x19	; 25
     ff8:	82 93       	st	-Z, r24
     ffa:	80 e2       	ldi	r24, 0x20	; 32
     ffc:	82 93       	st	-Z, r24
     ffe:	81 e2       	ldi	r24, 0x21	; 33
    1000:	82 93       	st	-Z, r24
    1002:	22 93       	st	-Z, r18
    1004:	83 e2       	ldi	r24, 0x23	; 35
    1006:	82 93       	st	-Z, r24
    1008:	42 93       	st	-Z, r20
    100a:	52 93       	st	-Z, r21
    100c:	86 e2       	ldi	r24, 0x26	; 38
    100e:	82 93       	st	-Z, r24
    1010:	87 e2       	ldi	r24, 0x27	; 39
    1012:	82 93       	st	-Z, r24
    1014:	88 e2       	ldi	r24, 0x28	; 40
    1016:	82 93       	st	-Z, r24
    1018:	89 e2       	ldi	r24, 0x29	; 41
    101a:	82 93       	st	-Z, r24
    101c:	80 e3       	ldi	r24, 0x30	; 48
    101e:	82 93       	st	-Z, r24
    1020:	81 e3       	ldi	r24, 0x31	; 49
    1022:	82 93       	st	-Z, r24
    1024:	31 97       	sbiw	r30, 0x01	; 1
    1026:	cf 01       	movw	r24, r30
    1028:	08 95       	ret

0000102a <xPortStartScheduler>:
    102a:	89 ef       	ldi	r24, 0xF9	; 249
    102c:	87 bd       	out	0x27, r24	; 39
    102e:	82 e0       	ldi	r24, 0x02	; 2
    1030:	84 bd       	out	0x24, r24	; 36
    1032:	83 e0       	ldi	r24, 0x03	; 3
    1034:	85 bd       	out	0x25, r24	; 37
    1036:	ee e6       	ldi	r30, 0x6E	; 110
    1038:	f0 e0       	ldi	r31, 0x00	; 0
    103a:	80 81       	ld	r24, Z
    103c:	82 60       	ori	r24, 0x02	; 2
    103e:	80 83       	st	Z, r24
    1040:	a0 91 a8 06 	lds	r26, 0x06A8
    1044:	b0 91 a9 06 	lds	r27, 0x06A9
    1048:	cd 91       	ld	r28, X+
    104a:	cd bf       	out	0x3d, r28	; 61
    104c:	dd 91       	ld	r29, X+
    104e:	de bf       	out	0x3e, r29	; 62
    1050:	ff 91       	pop	r31
    1052:	ef 91       	pop	r30
    1054:	df 91       	pop	r29
    1056:	cf 91       	pop	r28
    1058:	bf 91       	pop	r27
    105a:	af 91       	pop	r26
    105c:	9f 91       	pop	r25
    105e:	8f 91       	pop	r24
    1060:	7f 91       	pop	r23
    1062:	6f 91       	pop	r22
    1064:	5f 91       	pop	r21
    1066:	4f 91       	pop	r20
    1068:	3f 91       	pop	r19
    106a:	2f 91       	pop	r18
    106c:	1f 91       	pop	r17
    106e:	0f 91       	pop	r16
    1070:	ff 90       	pop	r15
    1072:	ef 90       	pop	r14
    1074:	df 90       	pop	r13
    1076:	cf 90       	pop	r12
    1078:	bf 90       	pop	r11
    107a:	af 90       	pop	r10
    107c:	9f 90       	pop	r9
    107e:	8f 90       	pop	r8
    1080:	7f 90       	pop	r7
    1082:	6f 90       	pop	r6
    1084:	5f 90       	pop	r5
    1086:	4f 90       	pop	r4
    1088:	3f 90       	pop	r3
    108a:	2f 90       	pop	r2
    108c:	1f 90       	pop	r1
    108e:	0f 90       	pop	r0
    1090:	0f be       	out	0x3f, r0	; 63
    1092:	0f 90       	pop	r0
    1094:	08 95       	ret
    1096:	81 e0       	ldi	r24, 0x01	; 1
    1098:	08 95       	ret

0000109a <vPortEndScheduler>:
    109a:	08 95       	ret

0000109c <vPortYieldFromTick>:
    109c:	0f 92       	push	r0
    109e:	0f b6       	in	r0, 0x3f	; 63
    10a0:	f8 94       	cli
    10a2:	0f 92       	push	r0
    10a4:	1f 92       	push	r1
    10a6:	11 24       	eor	r1, r1
    10a8:	2f 92       	push	r2
    10aa:	3f 92       	push	r3
    10ac:	4f 92       	push	r4
    10ae:	5f 92       	push	r5
    10b0:	6f 92       	push	r6
    10b2:	7f 92       	push	r7
    10b4:	8f 92       	push	r8
    10b6:	9f 92       	push	r9
    10b8:	af 92       	push	r10
    10ba:	bf 92       	push	r11
    10bc:	cf 92       	push	r12
    10be:	df 92       	push	r13
    10c0:	ef 92       	push	r14
    10c2:	ff 92       	push	r15
    10c4:	0f 93       	push	r16
    10c6:	1f 93       	push	r17
    10c8:	2f 93       	push	r18
    10ca:	3f 93       	push	r19
    10cc:	4f 93       	push	r20
    10ce:	5f 93       	push	r21
    10d0:	6f 93       	push	r22
    10d2:	7f 93       	push	r23
    10d4:	8f 93       	push	r24
    10d6:	9f 93       	push	r25
    10d8:	af 93       	push	r26
    10da:	bf 93       	push	r27
    10dc:	cf 93       	push	r28
    10de:	df 93       	push	r29
    10e0:	ef 93       	push	r30
    10e2:	ff 93       	push	r31
    10e4:	a0 91 a8 06 	lds	r26, 0x06A8
    10e8:	b0 91 a9 06 	lds	r27, 0x06A9
    10ec:	0d b6       	in	r0, 0x3d	; 61
    10ee:	0d 92       	st	X+, r0
    10f0:	0e b6       	in	r0, 0x3e	; 62
    10f2:	0d 92       	st	X+, r0
    10f4:	0e 94 fd 14 	call	0x29fa	; 0x29fa <xTaskIncrementTick>
    10f8:	88 23       	and	r24, r24
    10fa:	11 f0       	breq	.+4      	; 0x1100 <vPortYieldFromTick+0x64>
    10fc:	0e 94 01 13 	call	0x2602	; 0x2602 <vTaskSwitchContext>
    1100:	a0 91 a8 06 	lds	r26, 0x06A8
    1104:	b0 91 a9 06 	lds	r27, 0x06A9
    1108:	cd 91       	ld	r28, X+
    110a:	cd bf       	out	0x3d, r28	; 61
    110c:	dd 91       	ld	r29, X+
    110e:	de bf       	out	0x3e, r29	; 62
    1110:	ff 91       	pop	r31
    1112:	ef 91       	pop	r30
    1114:	df 91       	pop	r29
    1116:	cf 91       	pop	r28
    1118:	bf 91       	pop	r27
    111a:	af 91       	pop	r26
    111c:	9f 91       	pop	r25
    111e:	8f 91       	pop	r24
    1120:	7f 91       	pop	r23
    1122:	6f 91       	pop	r22
    1124:	5f 91       	pop	r21
    1126:	4f 91       	pop	r20
    1128:	3f 91       	pop	r19
    112a:	2f 91       	pop	r18
    112c:	1f 91       	pop	r17
    112e:	0f 91       	pop	r16
    1130:	ff 90       	pop	r15
    1132:	ef 90       	pop	r14
    1134:	df 90       	pop	r13
    1136:	cf 90       	pop	r12
    1138:	bf 90       	pop	r11
    113a:	af 90       	pop	r10
    113c:	9f 90       	pop	r9
    113e:	8f 90       	pop	r8
    1140:	7f 90       	pop	r7
    1142:	6f 90       	pop	r6
    1144:	5f 90       	pop	r5
    1146:	4f 90       	pop	r4
    1148:	3f 90       	pop	r3
    114a:	2f 90       	pop	r2
    114c:	1f 90       	pop	r1
    114e:	0f 90       	pop	r0
    1150:	0f be       	out	0x3f, r0	; 63
    1152:	0f 90       	pop	r0
    1154:	08 95       	ret

00001156 <__vector_14>:
    1156:	0e 94 4e 08 	call	0x109c	; 0x109c <vPortYieldFromTick>
    115a:	18 95       	reti

0000115c <vPortYield>:
    115c:	0f 92       	push	r0
    115e:	0f b6       	in	r0, 0x3f	; 63
    1160:	f8 94       	cli
    1162:	0f 92       	push	r0
    1164:	1f 92       	push	r1
    1166:	11 24       	eor	r1, r1
    1168:	2f 92       	push	r2
    116a:	3f 92       	push	r3
    116c:	4f 92       	push	r4
    116e:	5f 92       	push	r5
    1170:	6f 92       	push	r6
    1172:	7f 92       	push	r7
    1174:	8f 92       	push	r8
    1176:	9f 92       	push	r9
    1178:	af 92       	push	r10
    117a:	bf 92       	push	r11
    117c:	cf 92       	push	r12
    117e:	df 92       	push	r13
    1180:	ef 92       	push	r14
    1182:	ff 92       	push	r15
    1184:	0f 93       	push	r16
    1186:	1f 93       	push	r17
    1188:	2f 93       	push	r18
    118a:	3f 93       	push	r19
    118c:	4f 93       	push	r20
    118e:	5f 93       	push	r21
    1190:	6f 93       	push	r22
    1192:	7f 93       	push	r23
    1194:	8f 93       	push	r24
    1196:	9f 93       	push	r25
    1198:	af 93       	push	r26
    119a:	bf 93       	push	r27
    119c:	cf 93       	push	r28
    119e:	df 93       	push	r29
    11a0:	ef 93       	push	r30
    11a2:	ff 93       	push	r31
    11a4:	a0 91 a8 06 	lds	r26, 0x06A8
    11a8:	b0 91 a9 06 	lds	r27, 0x06A9
    11ac:	0d b6       	in	r0, 0x3d	; 61
    11ae:	0d 92       	st	X+, r0
    11b0:	0e b6       	in	r0, 0x3e	; 62
    11b2:	0d 92       	st	X+, r0
    11b4:	0e 94 01 13 	call	0x2602	; 0x2602 <vTaskSwitchContext>
    11b8:	a0 91 a8 06 	lds	r26, 0x06A8
    11bc:	b0 91 a9 06 	lds	r27, 0x06A9
    11c0:	cd 91       	ld	r28, X+
    11c2:	cd bf       	out	0x3d, r28	; 61
    11c4:	dd 91       	ld	r29, X+
    11c6:	de bf       	out	0x3e, r29	; 62
    11c8:	ff 91       	pop	r31
    11ca:	ef 91       	pop	r30
    11cc:	df 91       	pop	r29
    11ce:	cf 91       	pop	r28
    11d0:	bf 91       	pop	r27
    11d2:	af 91       	pop	r26
    11d4:	9f 91       	pop	r25
    11d6:	8f 91       	pop	r24
    11d8:	7f 91       	pop	r23
    11da:	6f 91       	pop	r22
    11dc:	5f 91       	pop	r21
    11de:	4f 91       	pop	r20
    11e0:	3f 91       	pop	r19
    11e2:	2f 91       	pop	r18
    11e4:	1f 91       	pop	r17
    11e6:	0f 91       	pop	r16
    11e8:	ff 90       	pop	r15
    11ea:	ef 90       	pop	r14
    11ec:	df 90       	pop	r13
    11ee:	cf 90       	pop	r12
    11f0:	bf 90       	pop	r11
    11f2:	af 90       	pop	r10
    11f4:	9f 90       	pop	r9
    11f6:	8f 90       	pop	r8
    11f8:	7f 90       	pop	r7
    11fa:	6f 90       	pop	r6
    11fc:	5f 90       	pop	r5
    11fe:	4f 90       	pop	r4
    1200:	3f 90       	pop	r3
    1202:	2f 90       	pop	r2
    1204:	1f 90       	pop	r1
    1206:	0f 90       	pop	r0
    1208:	0f be       	out	0x3f, r0	; 63
    120a:	0f 90       	pop	r0
    120c:	08 95       	ret

0000120e <vPortFree>:
    120e:	08 95       	ret

00001210 <vPortInitialiseBlocks>:
    1210:	10 92 a5 02 	sts	0x02A5, r1
    1214:	10 92 a4 02 	sts	0x02A4, r1
    1218:	08 95       	ret

0000121a <xPortGetFreeHeapSize>:
    121a:	2f ef       	ldi	r18, 0xFF	; 255
    121c:	33 e0       	ldi	r19, 0x03	; 3
    121e:	80 91 a4 02 	lds	r24, 0x02A4
    1222:	90 91 a5 02 	lds	r25, 0x02A5
    1226:	28 1b       	sub	r18, r24
    1228:	39 0b       	sbc	r19, r25
    122a:	c9 01       	movw	r24, r18
    122c:	08 95       	ret

0000122e <pvPortMalloc>:
    122e:	cf 93       	push	r28
    1230:	df 93       	push	r29
    1232:	ec 01       	movw	r28, r24
    1234:	0e 94 dc 12 	call	0x25b8	; 0x25b8 <vTaskSuspendAll>
    1238:	80 91 a6 02 	lds	r24, 0x02A6
    123c:	90 91 a7 02 	lds	r25, 0x02A7
    1240:	89 2b       	or	r24, r25
    1242:	31 f4       	brne	.+12     	; 0x1250 <pvPortMalloc+0x22>
    1244:	89 ea       	ldi	r24, 0xA9	; 169
    1246:	92 e0       	ldi	r25, 0x02	; 2
    1248:	90 93 a7 02 	sts	0x02A7, r25
    124c:	80 93 a6 02 	sts	0x02A6, r24
    1250:	20 91 a4 02 	lds	r18, 0x02A4
    1254:	30 91 a5 02 	lds	r19, 0x02A5
    1258:	ce 01       	movw	r24, r28
    125a:	82 0f       	add	r24, r18
    125c:	93 1f       	adc	r25, r19
    125e:	43 e0       	ldi	r20, 0x03	; 3
    1260:	8f 3f       	cpi	r24, 0xFF	; 255
    1262:	94 07       	cpc	r25, r20
    1264:	70 f4       	brcc	.+28     	; 0x1282 <pvPortMalloc+0x54>
    1266:	28 17       	cp	r18, r24
    1268:	39 07       	cpc	r19, r25
    126a:	58 f4       	brcc	.+22     	; 0x1282 <pvPortMalloc+0x54>
    126c:	c0 91 a6 02 	lds	r28, 0x02A6
    1270:	d0 91 a7 02 	lds	r29, 0x02A7
    1274:	c2 0f       	add	r28, r18
    1276:	d3 1f       	adc	r29, r19
    1278:	90 93 a5 02 	sts	0x02A5, r25
    127c:	80 93 a4 02 	sts	0x02A4, r24
    1280:	02 c0       	rjmp	.+4      	; 0x1286 <pvPortMalloc+0x58>
    1282:	c0 e0       	ldi	r28, 0x00	; 0
    1284:	d0 e0       	ldi	r29, 0x00	; 0
    1286:	0e 94 30 16 	call	0x2c60	; 0x2c60 <xTaskResumeAll>
    128a:	ce 01       	movw	r24, r28
    128c:	df 91       	pop	r29
    128e:	cf 91       	pop	r28
    1290:	08 95       	ret

00001292 <uxQueueMessagesWaiting>:
    1292:	0f b6       	in	r0, 0x3f	; 63
    1294:	f8 94       	cli
    1296:	0f 92       	push	r0
    1298:	fc 01       	movw	r30, r24
    129a:	82 8d       	ldd	r24, Z+26	; 0x1a
    129c:	0f 90       	pop	r0
    129e:	0f be       	out	0x3f, r0	; 63
    12a0:	08 95       	ret

000012a2 <uxQueueSpacesAvailable>:
    12a2:	fc 01       	movw	r30, r24
    12a4:	0f b6       	in	r0, 0x3f	; 63
    12a6:	f8 94       	cli
    12a8:	0f 92       	push	r0
    12aa:	92 8d       	ldd	r25, Z+26	; 0x1a
    12ac:	0f 90       	pop	r0
    12ae:	0f be       	out	0x3f, r0	; 63
    12b0:	83 8d       	ldd	r24, Z+27	; 0x1b
    12b2:	89 1b       	sub	r24, r25
    12b4:	08 95       	ret

000012b6 <uxQueueMessagesWaitingFromISR>:
    12b6:	fc 01       	movw	r30, r24
    12b8:	82 8d       	ldd	r24, Z+26	; 0x1a
    12ba:	08 95       	ret

000012bc <xQueueIsQueueEmptyFromISR>:
    12bc:	fc 01       	movw	r30, r24
    12be:	82 8d       	ldd	r24, Z+26	; 0x1a
    12c0:	90 e0       	ldi	r25, 0x00	; 0
    12c2:	88 23       	and	r24, r24
    12c4:	09 f4       	brne	.+2      	; 0x12c8 <xQueueIsQueueEmptyFromISR+0xc>
    12c6:	91 e0       	ldi	r25, 0x01	; 1
    12c8:	89 2f       	mov	r24, r25
    12ca:	08 95       	ret

000012cc <xQueueIsQueueFullFromISR>:
    12cc:	fc 01       	movw	r30, r24
    12ce:	92 8d       	ldd	r25, Z+26	; 0x1a
    12d0:	20 e0       	ldi	r18, 0x00	; 0
    12d2:	83 8d       	ldd	r24, Z+27	; 0x1b
    12d4:	98 17       	cp	r25, r24
    12d6:	09 f4       	brne	.+2      	; 0x12da <xQueueIsQueueFullFromISR+0xe>
    12d8:	21 e0       	ldi	r18, 0x01	; 1
    12da:	82 2f       	mov	r24, r18
    12dc:	08 95       	ret

000012de <prvCopyDataToQueue>:
    12de:	0f 93       	push	r16
    12e0:	1f 93       	push	r17
    12e2:	cf 93       	push	r28
    12e4:	df 93       	push	r29
    12e6:	ec 01       	movw	r28, r24
    12e8:	04 2f       	mov	r16, r20
    12ea:	1a 8d       	ldd	r17, Y+26	; 0x1a
    12ec:	4c 8d       	ldd	r20, Y+28	; 0x1c
    12ee:	44 23       	and	r20, r20
    12f0:	c1 f1       	breq	.+112    	; 0x1362 <prvCopyDataToQueue+0x84>
    12f2:	00 23       	and	r16, r16
    12f4:	b1 f4       	brne	.+44     	; 0x1322 <prvCopyDataToQueue+0x44>
    12f6:	8c 81       	ldd	r24, Y+4	; 0x04
    12f8:	9d 81       	ldd	r25, Y+5	; 0x05
    12fa:	50 e0       	ldi	r21, 0x00	; 0
    12fc:	0e 94 5b 21 	call	0x42b6	; 0x42b6 <memcpy>
    1300:	8c 8d       	ldd	r24, Y+28	; 0x1c
    1302:	2c 81       	ldd	r18, Y+4	; 0x04
    1304:	3d 81       	ldd	r19, Y+5	; 0x05
    1306:	28 0f       	add	r18, r24
    1308:	31 1d       	adc	r19, r1
    130a:	3d 83       	std	Y+5, r19	; 0x05
    130c:	2c 83       	std	Y+4, r18	; 0x04
    130e:	8a 81       	ldd	r24, Y+2	; 0x02
    1310:	9b 81       	ldd	r25, Y+3	; 0x03
    1312:	28 17       	cp	r18, r24
    1314:	39 07       	cpc	r19, r25
    1316:	28 f1       	brcs	.+74     	; 0x1362 <prvCopyDataToQueue+0x84>
    1318:	88 81       	ld	r24, Y
    131a:	99 81       	ldd	r25, Y+1	; 0x01
    131c:	9d 83       	std	Y+5, r25	; 0x05
    131e:	8c 83       	std	Y+4, r24	; 0x04
    1320:	20 c0       	rjmp	.+64     	; 0x1362 <prvCopyDataToQueue+0x84>
    1322:	8e 81       	ldd	r24, Y+6	; 0x06
    1324:	9f 81       	ldd	r25, Y+7	; 0x07
    1326:	50 e0       	ldi	r21, 0x00	; 0
    1328:	0e 94 5b 21 	call	0x42b6	; 0x42b6 <memcpy>
    132c:	8c 8d       	ldd	r24, Y+28	; 0x1c
    132e:	90 e0       	ldi	r25, 0x00	; 0
    1330:	44 27       	eor	r20, r20
    1332:	55 27       	eor	r21, r21
    1334:	48 1b       	sub	r20, r24
    1336:	59 0b       	sbc	r21, r25
    1338:	8e 81       	ldd	r24, Y+6	; 0x06
    133a:	9f 81       	ldd	r25, Y+7	; 0x07
    133c:	84 0f       	add	r24, r20
    133e:	95 1f       	adc	r25, r21
    1340:	9f 83       	std	Y+7, r25	; 0x07
    1342:	8e 83       	std	Y+6, r24	; 0x06
    1344:	28 81       	ld	r18, Y
    1346:	39 81       	ldd	r19, Y+1	; 0x01
    1348:	82 17       	cp	r24, r18
    134a:	93 07       	cpc	r25, r19
    134c:	30 f4       	brcc	.+12     	; 0x135a <prvCopyDataToQueue+0x7c>
    134e:	8a 81       	ldd	r24, Y+2	; 0x02
    1350:	9b 81       	ldd	r25, Y+3	; 0x03
    1352:	84 0f       	add	r24, r20
    1354:	95 1f       	adc	r25, r21
    1356:	9f 83       	std	Y+7, r25	; 0x07
    1358:	8e 83       	std	Y+6, r24	; 0x06
    135a:	02 30       	cpi	r16, 0x02	; 2
    135c:	11 f4       	brne	.+4      	; 0x1362 <prvCopyDataToQueue+0x84>
    135e:	11 11       	cpse	r17, r1
    1360:	11 50       	subi	r17, 0x01	; 1
    1362:	1f 5f       	subi	r17, 0xFF	; 255
    1364:	1a 8f       	std	Y+26, r17	; 0x1a
    1366:	80 e0       	ldi	r24, 0x00	; 0
    1368:	df 91       	pop	r29
    136a:	cf 91       	pop	r28
    136c:	1f 91       	pop	r17
    136e:	0f 91       	pop	r16
    1370:	08 95       	ret

00001372 <prvCopyDataFromQueue>:
    1372:	fc 01       	movw	r30, r24
    1374:	56 2f       	mov	r21, r22
    1376:	a7 2f       	mov	r26, r23
    1378:	24 8d       	ldd	r18, Z+28	; 0x1c
    137a:	22 23       	and	r18, r18
    137c:	b9 f0       	breq	.+46     	; 0x13ac <prvCopyDataFromQueue+0x3a>
    137e:	86 81       	ldd	r24, Z+6	; 0x06
    1380:	97 81       	ldd	r25, Z+7	; 0x07
    1382:	82 0f       	add	r24, r18
    1384:	91 1d       	adc	r25, r1
    1386:	97 83       	std	Z+7, r25	; 0x07
    1388:	86 83       	std	Z+6, r24	; 0x06
    138a:	22 81       	ldd	r18, Z+2	; 0x02
    138c:	33 81       	ldd	r19, Z+3	; 0x03
    138e:	82 17       	cp	r24, r18
    1390:	93 07       	cpc	r25, r19
    1392:	20 f0       	brcs	.+8      	; 0x139c <prvCopyDataFromQueue+0x2a>
    1394:	80 81       	ld	r24, Z
    1396:	91 81       	ldd	r25, Z+1	; 0x01
    1398:	97 83       	std	Z+7, r25	; 0x07
    139a:	86 83       	std	Z+6, r24	; 0x06
    139c:	44 8d       	ldd	r20, Z+28	; 0x1c
    139e:	66 81       	ldd	r22, Z+6	; 0x06
    13a0:	77 81       	ldd	r23, Z+7	; 0x07
    13a2:	85 2f       	mov	r24, r21
    13a4:	9a 2f       	mov	r25, r26
    13a6:	50 e0       	ldi	r21, 0x00	; 0
    13a8:	0e 94 5b 21 	call	0x42b6	; 0x42b6 <memcpy>
    13ac:	08 95       	ret

000013ae <xQueuePeekFromISR>:
    13ae:	0f 93       	push	r16
    13b0:	1f 93       	push	r17
    13b2:	cf 93       	push	r28
    13b4:	df 93       	push	r29
    13b6:	ec 01       	movw	r28, r24
    13b8:	8a 8d       	ldd	r24, Y+26	; 0x1a
    13ba:	88 23       	and	r24, r24
    13bc:	41 f0       	breq	.+16     	; 0x13ce <xQueuePeekFromISR+0x20>
    13be:	0e 81       	ldd	r16, Y+6	; 0x06
    13c0:	1f 81       	ldd	r17, Y+7	; 0x07
    13c2:	ce 01       	movw	r24, r28
    13c4:	0e 94 b9 09 	call	0x1372	; 0x1372 <prvCopyDataFromQueue>
    13c8:	1f 83       	std	Y+7, r17	; 0x07
    13ca:	0e 83       	std	Y+6, r16	; 0x06
    13cc:	81 e0       	ldi	r24, 0x01	; 1
    13ce:	df 91       	pop	r29
    13d0:	cf 91       	pop	r28
    13d2:	1f 91       	pop	r17
    13d4:	0f 91       	pop	r16
    13d6:	08 95       	ret

000013d8 <xQueueCRReceiveFromISR>:
    13d8:	0f 93       	push	r16
    13da:	1f 93       	push	r17
    13dc:	cf 93       	push	r28
    13de:	df 93       	push	r29
    13e0:	fb 01       	movw	r30, r22
    13e2:	8a 01       	movw	r16, r20
    13e4:	ec 01       	movw	r28, r24
    13e6:	8a 8d       	ldd	r24, Y+26	; 0x1a
    13e8:	88 23       	and	r24, r24
    13ea:	61 f1       	breq	.+88     	; 0x1444 <xQueueCRReceiveFromISR+0x6c>
    13ec:	8c 8d       	ldd	r24, Y+28	; 0x1c
    13ee:	2e 81       	ldd	r18, Y+6	; 0x06
    13f0:	3f 81       	ldd	r19, Y+7	; 0x07
    13f2:	28 0f       	add	r18, r24
    13f4:	31 1d       	adc	r19, r1
    13f6:	3f 83       	std	Y+7, r19	; 0x07
    13f8:	2e 83       	std	Y+6, r18	; 0x06
    13fa:	8a 81       	ldd	r24, Y+2	; 0x02
    13fc:	9b 81       	ldd	r25, Y+3	; 0x03
    13fe:	28 17       	cp	r18, r24
    1400:	39 07       	cpc	r19, r25
    1402:	20 f0       	brcs	.+8      	; 0x140c <xQueueCRReceiveFromISR+0x34>
    1404:	88 81       	ld	r24, Y
    1406:	99 81       	ldd	r25, Y+1	; 0x01
    1408:	9f 83       	std	Y+7, r25	; 0x07
    140a:	8e 83       	std	Y+6, r24	; 0x06
    140c:	8a 8d       	ldd	r24, Y+26	; 0x1a
    140e:	81 50       	subi	r24, 0x01	; 1
    1410:	8a 8f       	std	Y+26, r24	; 0x1a
    1412:	4c 8d       	ldd	r20, Y+28	; 0x1c
    1414:	6e 81       	ldd	r22, Y+6	; 0x06
    1416:	7f 81       	ldd	r23, Y+7	; 0x07
    1418:	cf 01       	movw	r24, r30
    141a:	50 e0       	ldi	r21, 0x00	; 0
    141c:	0e 94 5b 21 	call	0x42b6	; 0x42b6 <memcpy>
    1420:	f8 01       	movw	r30, r16
    1422:	80 81       	ld	r24, Z
    1424:	88 23       	and	r24, r24
    1426:	69 f4       	brne	.+26     	; 0x1442 <xQueueCRReceiveFromISR+0x6a>
    1428:	88 85       	ldd	r24, Y+8	; 0x08
    142a:	88 23       	and	r24, r24
    142c:	51 f0       	breq	.+20     	; 0x1442 <xQueueCRReceiveFromISR+0x6a>
    142e:	ce 01       	movw	r24, r28
    1430:	08 96       	adiw	r24, 0x08	; 8
    1432:	0e 94 53 00 	call	0xa6	; 0xa6 <xCoRoutineRemoveFromEventList>
    1436:	88 23       	and	r24, r24
    1438:	21 f0       	breq	.+8      	; 0x1442 <xQueueCRReceiveFromISR+0x6a>
    143a:	81 e0       	ldi	r24, 0x01	; 1
    143c:	f8 01       	movw	r30, r16
    143e:	80 83       	st	Z, r24
    1440:	01 c0       	rjmp	.+2      	; 0x1444 <xQueueCRReceiveFromISR+0x6c>
    1442:	81 e0       	ldi	r24, 0x01	; 1
    1444:	df 91       	pop	r29
    1446:	cf 91       	pop	r28
    1448:	1f 91       	pop	r17
    144a:	0f 91       	pop	r16
    144c:	08 95       	ret

0000144e <xQueueCRSendFromISR>:
    144e:	1f 93       	push	r17
    1450:	cf 93       	push	r28
    1452:	df 93       	push	r29
    1454:	14 2f       	mov	r17, r20
    1456:	ec 01       	movw	r28, r24
    1458:	9a 8d       	ldd	r25, Y+26	; 0x1a
    145a:	8b 8d       	ldd	r24, Y+27	; 0x1b
    145c:	98 17       	cp	r25, r24
    145e:	88 f4       	brcc	.+34     	; 0x1482 <xQueueCRSendFromISR+0x34>
    1460:	ce 01       	movw	r24, r28
    1462:	40 e0       	ldi	r20, 0x00	; 0
    1464:	0e 94 6f 09 	call	0x12de	; 0x12de <prvCopyDataToQueue>
    1468:	11 23       	and	r17, r17
    146a:	59 f4       	brne	.+22     	; 0x1482 <xQueueCRSendFromISR+0x34>
    146c:	89 89       	ldd	r24, Y+17	; 0x11
    146e:	88 23       	and	r24, r24
    1470:	41 f0       	breq	.+16     	; 0x1482 <xQueueCRSendFromISR+0x34>
    1472:	ce 01       	movw	r24, r28
    1474:	41 96       	adiw	r24, 0x11	; 17
    1476:	0e 94 53 00 	call	0xa6	; 0xa6 <xCoRoutineRemoveFromEventList>
    147a:	48 2f       	mov	r20, r24
    147c:	81 11       	cpse	r24, r1
    147e:	41 e0       	ldi	r20, 0x01	; 1
    1480:	14 2f       	mov	r17, r20
    1482:	81 2f       	mov	r24, r17
    1484:	df 91       	pop	r29
    1486:	cf 91       	pop	r28
    1488:	1f 91       	pop	r17
    148a:	08 95       	ret

0000148c <xQueueCRReceive>:
    148c:	cf 93       	push	r28
    148e:	df 93       	push	r29
    1490:	fb 01       	movw	r30, r22
    1492:	ec 01       	movw	r28, r24
    1494:	f8 94       	cli
    1496:	8a 8d       	ldd	r24, Y+26	; 0x1a
    1498:	88 23       	and	r24, r24
    149a:	71 f4       	brne	.+28     	; 0x14b8 <xQueueCRReceive+0x2c>
    149c:	41 15       	cp	r20, r1
    149e:	51 05       	cpc	r21, r1
    14a0:	41 f0       	breq	.+16     	; 0x14b2 <xQueueCRReceive+0x26>
    14a2:	61 96       	adiw	r28, 0x11	; 17
    14a4:	ca 01       	movw	r24, r20
    14a6:	be 01       	movw	r22, r28
    14a8:	0e 94 5b 01 	call	0x2b6	; 0x2b6 <vCoRoutineAddToDelayedList>
    14ac:	78 94       	sei
    14ae:	8c ef       	ldi	r24, 0xFC	; 252
    14b0:	2f c0       	rjmp	.+94     	; 0x1510 <xQueueCRReceive+0x84>
    14b2:	78 94       	sei
    14b4:	80 e0       	ldi	r24, 0x00	; 0
    14b6:	2c c0       	rjmp	.+88     	; 0x1510 <xQueueCRReceive+0x84>
    14b8:	78 94       	sei
    14ba:	f8 94       	cli
    14bc:	8a 8d       	ldd	r24, Y+26	; 0x1a
    14be:	88 23       	and	r24, r24
    14c0:	31 f1       	breq	.+76     	; 0x150e <xQueueCRReceive+0x82>
    14c2:	8c 8d       	ldd	r24, Y+28	; 0x1c
    14c4:	2e 81       	ldd	r18, Y+6	; 0x06
    14c6:	3f 81       	ldd	r19, Y+7	; 0x07
    14c8:	28 0f       	add	r18, r24
    14ca:	31 1d       	adc	r19, r1
    14cc:	3f 83       	std	Y+7, r19	; 0x07
    14ce:	2e 83       	std	Y+6, r18	; 0x06
    14d0:	8a 81       	ldd	r24, Y+2	; 0x02
    14d2:	9b 81       	ldd	r25, Y+3	; 0x03
    14d4:	28 17       	cp	r18, r24
    14d6:	39 07       	cpc	r19, r25
    14d8:	20 f0       	brcs	.+8      	; 0x14e2 <xQueueCRReceive+0x56>
    14da:	88 81       	ld	r24, Y
    14dc:	99 81       	ldd	r25, Y+1	; 0x01
    14de:	9f 83       	std	Y+7, r25	; 0x07
    14e0:	8e 83       	std	Y+6, r24	; 0x06
    14e2:	8a 8d       	ldd	r24, Y+26	; 0x1a
    14e4:	81 50       	subi	r24, 0x01	; 1
    14e6:	8a 8f       	std	Y+26, r24	; 0x1a
    14e8:	4c 8d       	ldd	r20, Y+28	; 0x1c
    14ea:	6e 81       	ldd	r22, Y+6	; 0x06
    14ec:	7f 81       	ldd	r23, Y+7	; 0x07
    14ee:	cf 01       	movw	r24, r30
    14f0:	50 e0       	ldi	r21, 0x00	; 0
    14f2:	0e 94 5b 21 	call	0x42b6	; 0x42b6 <memcpy>
    14f6:	88 85       	ldd	r24, Y+8	; 0x08
    14f8:	88 23       	and	r24, r24
    14fa:	41 f0       	breq	.+16     	; 0x150c <xQueueCRReceive+0x80>
    14fc:	ce 01       	movw	r24, r28
    14fe:	08 96       	adiw	r24, 0x08	; 8
    1500:	0e 94 53 00 	call	0xa6	; 0xa6 <xCoRoutineRemoveFromEventList>
    1504:	88 23       	and	r24, r24
    1506:	11 f0       	breq	.+4      	; 0x150c <xQueueCRReceive+0x80>
    1508:	8b ef       	ldi	r24, 0xFB	; 251
    150a:	01 c0       	rjmp	.+2      	; 0x150e <xQueueCRReceive+0x82>
    150c:	81 e0       	ldi	r24, 0x01	; 1
    150e:	78 94       	sei
    1510:	df 91       	pop	r29
    1512:	cf 91       	pop	r28
    1514:	08 95       	ret

00001516 <xQueueCRSend>:
    1516:	cf 93       	push	r28
    1518:	df 93       	push	r29
    151a:	ec 01       	movw	r28, r24
    151c:	f8 94       	cli
    151e:	0f b6       	in	r0, 0x3f	; 63
    1520:	f8 94       	cli
    1522:	0f 92       	push	r0
    1524:	8a 8d       	ldd	r24, Y+26	; 0x1a
    1526:	9b 8d       	ldd	r25, Y+27	; 0x1b
    1528:	0f 90       	pop	r0
    152a:	0f be       	out	0x3f, r0	; 63
    152c:	89 17       	cp	r24, r25
    152e:	71 f4       	brne	.+28     	; 0x154c <xQueueCRSend+0x36>
    1530:	41 15       	cp	r20, r1
    1532:	51 05       	cpc	r21, r1
    1534:	41 f0       	breq	.+16     	; 0x1546 <xQueueCRSend+0x30>
    1536:	28 96       	adiw	r28, 0x08	; 8
    1538:	ca 01       	movw	r24, r20
    153a:	be 01       	movw	r22, r28
    153c:	0e 94 5b 01 	call	0x2b6	; 0x2b6 <vCoRoutineAddToDelayedList>
    1540:	78 94       	sei
    1542:	8c ef       	ldi	r24, 0xFC	; 252
    1544:	1b c0       	rjmp	.+54     	; 0x157c <xQueueCRSend+0x66>
    1546:	78 94       	sei
    1548:	80 e0       	ldi	r24, 0x00	; 0
    154a:	18 c0       	rjmp	.+48     	; 0x157c <xQueueCRSend+0x66>
    154c:	78 94       	sei
    154e:	f8 94       	cli
    1550:	8a 8d       	ldd	r24, Y+26	; 0x1a
    1552:	89 17       	cp	r24, r25
    1554:	10 f0       	brcs	.+4      	; 0x155a <xQueueCRSend+0x44>
    1556:	80 e0       	ldi	r24, 0x00	; 0
    1558:	10 c0       	rjmp	.+32     	; 0x157a <xQueueCRSend+0x64>
    155a:	ce 01       	movw	r24, r28
    155c:	40 e0       	ldi	r20, 0x00	; 0
    155e:	0e 94 6f 09 	call	0x12de	; 0x12de <prvCopyDataToQueue>
    1562:	89 89       	ldd	r24, Y+17	; 0x11
    1564:	88 23       	and	r24, r24
    1566:	41 f0       	breq	.+16     	; 0x1578 <xQueueCRSend+0x62>
    1568:	ce 01       	movw	r24, r28
    156a:	41 96       	adiw	r24, 0x11	; 17
    156c:	0e 94 53 00 	call	0xa6	; 0xa6 <xCoRoutineRemoveFromEventList>
    1570:	88 23       	and	r24, r24
    1572:	11 f0       	breq	.+4      	; 0x1578 <xQueueCRSend+0x62>
    1574:	8b ef       	ldi	r24, 0xFB	; 251
    1576:	01 c0       	rjmp	.+2      	; 0x157a <xQueueCRSend+0x64>
    1578:	81 e0       	ldi	r24, 0x01	; 1
    157a:	78 94       	sei
    157c:	df 91       	pop	r29
    157e:	cf 91       	pop	r28
    1580:	08 95       	ret

00001582 <vQueueDelete>:
    1582:	0e 94 07 09 	call	0x120e	; 0x120e <vPortFree>
    1586:	08 95       	ret

00001588 <xQueueReceiveFromISR>:
    1588:	ef 92       	push	r14
    158a:	ff 92       	push	r15
    158c:	0f 93       	push	r16
    158e:	1f 93       	push	r17
    1590:	cf 93       	push	r28
    1592:	df 93       	push	r29
    1594:	7a 01       	movw	r14, r20
    1596:	ec 01       	movw	r28, r24
    1598:	1a 8d       	ldd	r17, Y+26	; 0x1a
    159a:	11 23       	and	r17, r17
    159c:	11 f4       	brne	.+4      	; 0x15a2 <xQueueReceiveFromISR+0x1a>
    159e:	80 e0       	ldi	r24, 0x00	; 0
    15a0:	1a c0       	rjmp	.+52     	; 0x15d6 <xQueueReceiveFromISR+0x4e>
    15a2:	0d 8d       	ldd	r16, Y+29	; 0x1d
    15a4:	0e 94 b9 09 	call	0x1372	; 0x1372 <prvCopyDataFromQueue>
    15a8:	11 50       	subi	r17, 0x01	; 1
    15aa:	1a 8f       	std	Y+26, r17	; 0x1a
    15ac:	0f 3f       	cpi	r16, 0xFF	; 255
    15ae:	81 f4       	brne	.+32     	; 0x15d0 <xQueueReceiveFromISR+0x48>
    15b0:	88 85       	ldd	r24, Y+8	; 0x08
    15b2:	88 23       	and	r24, r24
    15b4:	79 f0       	breq	.+30     	; 0x15d4 <xQueueReceiveFromISR+0x4c>
    15b6:	ce 01       	movw	r24, r28
    15b8:	08 96       	adiw	r24, 0x08	; 8
    15ba:	0e 94 bd 14 	call	0x297a	; 0x297a <xTaskRemoveFromEventList>
    15be:	88 23       	and	r24, r24
    15c0:	49 f0       	breq	.+18     	; 0x15d4 <xQueueReceiveFromISR+0x4c>
    15c2:	e1 14       	cp	r14, r1
    15c4:	f1 04       	cpc	r15, r1
    15c6:	31 f0       	breq	.+12     	; 0x15d4 <xQueueReceiveFromISR+0x4c>
    15c8:	81 e0       	ldi	r24, 0x01	; 1
    15ca:	f7 01       	movw	r30, r14
    15cc:	80 83       	st	Z, r24
    15ce:	03 c0       	rjmp	.+6      	; 0x15d6 <xQueueReceiveFromISR+0x4e>
    15d0:	0f 5f       	subi	r16, 0xFF	; 255
    15d2:	0d 8f       	std	Y+29, r16	; 0x1d
    15d4:	81 e0       	ldi	r24, 0x01	; 1
    15d6:	df 91       	pop	r29
    15d8:	cf 91       	pop	r28
    15da:	1f 91       	pop	r17
    15dc:	0f 91       	pop	r16
    15de:	ff 90       	pop	r15
    15e0:	ef 90       	pop	r14
    15e2:	08 95       	ret

000015e4 <xQueueGiveFromISR>:
    15e4:	cf 93       	push	r28
    15e6:	df 93       	push	r29
    15e8:	eb 01       	movw	r28, r22
    15ea:	fc 01       	movw	r30, r24
    15ec:	92 8d       	ldd	r25, Z+26	; 0x1a
    15ee:	83 8d       	ldd	r24, Z+27	; 0x1b
    15f0:	98 17       	cp	r25, r24
    15f2:	10 f0       	brcs	.+4      	; 0x15f8 <xQueueGiveFromISR+0x14>
    15f4:	80 e0       	ldi	r24, 0x00	; 0
    15f6:	16 c0       	rjmp	.+44     	; 0x1624 <xQueueGiveFromISR+0x40>
    15f8:	86 8d       	ldd	r24, Z+30	; 0x1e
    15fa:	9f 5f       	subi	r25, 0xFF	; 255
    15fc:	92 8f       	std	Z+26, r25	; 0x1a
    15fe:	8f 3f       	cpi	r24, 0xFF	; 255
    1600:	71 f4       	brne	.+28     	; 0x161e <xQueueGiveFromISR+0x3a>
    1602:	81 89       	ldd	r24, Z+17	; 0x11
    1604:	88 23       	and	r24, r24
    1606:	69 f0       	breq	.+26     	; 0x1622 <xQueueGiveFromISR+0x3e>
    1608:	cf 01       	movw	r24, r30
    160a:	41 96       	adiw	r24, 0x11	; 17
    160c:	0e 94 bd 14 	call	0x297a	; 0x297a <xTaskRemoveFromEventList>
    1610:	88 23       	and	r24, r24
    1612:	39 f0       	breq	.+14     	; 0x1622 <xQueueGiveFromISR+0x3e>
    1614:	20 97       	sbiw	r28, 0x00	; 0
    1616:	29 f0       	breq	.+10     	; 0x1622 <xQueueGiveFromISR+0x3e>
    1618:	81 e0       	ldi	r24, 0x01	; 1
    161a:	88 83       	st	Y, r24
    161c:	03 c0       	rjmp	.+6      	; 0x1624 <xQueueGiveFromISR+0x40>
    161e:	8f 5f       	subi	r24, 0xFF	; 255
    1620:	86 8f       	std	Z+30, r24	; 0x1e
    1622:	81 e0       	ldi	r24, 0x01	; 1
    1624:	df 91       	pop	r29
    1626:	cf 91       	pop	r28
    1628:	08 95       	ret

0000162a <xQueueGenericSendFromISR>:
    162a:	ef 92       	push	r14
    162c:	ff 92       	push	r15
    162e:	1f 93       	push	r17
    1630:	cf 93       	push	r28
    1632:	df 93       	push	r29
    1634:	7a 01       	movw	r14, r20
    1636:	ec 01       	movw	r28, r24
    1638:	9a 8d       	ldd	r25, Y+26	; 0x1a
    163a:	8b 8d       	ldd	r24, Y+27	; 0x1b
    163c:	98 17       	cp	r25, r24
    163e:	20 f0       	brcs	.+8      	; 0x1648 <xQueueGenericSendFromISR+0x1e>
    1640:	22 30       	cpi	r18, 0x02	; 2
    1642:	11 f0       	breq	.+4      	; 0x1648 <xQueueGenericSendFromISR+0x1e>
    1644:	80 e0       	ldi	r24, 0x00	; 0
    1646:	1a c0       	rjmp	.+52     	; 0x167c <xQueueGenericSendFromISR+0x52>
    1648:	1e 8d       	ldd	r17, Y+30	; 0x1e
    164a:	ce 01       	movw	r24, r28
    164c:	42 2f       	mov	r20, r18
    164e:	0e 94 6f 09 	call	0x12de	; 0x12de <prvCopyDataToQueue>
    1652:	1f 3f       	cpi	r17, 0xFF	; 255
    1654:	81 f4       	brne	.+32     	; 0x1676 <xQueueGenericSendFromISR+0x4c>
    1656:	89 89       	ldd	r24, Y+17	; 0x11
    1658:	88 23       	and	r24, r24
    165a:	79 f0       	breq	.+30     	; 0x167a <xQueueGenericSendFromISR+0x50>
    165c:	ce 01       	movw	r24, r28
    165e:	41 96       	adiw	r24, 0x11	; 17
    1660:	0e 94 bd 14 	call	0x297a	; 0x297a <xTaskRemoveFromEventList>
    1664:	88 23       	and	r24, r24
    1666:	49 f0       	breq	.+18     	; 0x167a <xQueueGenericSendFromISR+0x50>
    1668:	e1 14       	cp	r14, r1
    166a:	f1 04       	cpc	r15, r1
    166c:	31 f0       	breq	.+12     	; 0x167a <xQueueGenericSendFromISR+0x50>
    166e:	81 e0       	ldi	r24, 0x01	; 1
    1670:	f7 01       	movw	r30, r14
    1672:	80 83       	st	Z, r24
    1674:	03 c0       	rjmp	.+6      	; 0x167c <xQueueGenericSendFromISR+0x52>
    1676:	1f 5f       	subi	r17, 0xFF	; 255
    1678:	1e 8f       	std	Y+30, r17	; 0x1e
    167a:	81 e0       	ldi	r24, 0x01	; 1
    167c:	df 91       	pop	r29
    167e:	cf 91       	pop	r28
    1680:	1f 91       	pop	r17
    1682:	ff 90       	pop	r15
    1684:	ef 90       	pop	r14
    1686:	08 95       	ret

00001688 <prvUnlockQueue>:
    1688:	ef 92       	push	r14
    168a:	ff 92       	push	r15
    168c:	1f 93       	push	r17
    168e:	cf 93       	push	r28
    1690:	df 93       	push	r29
    1692:	ec 01       	movw	r28, r24
    1694:	0f b6       	in	r0, 0x3f	; 63
    1696:	f8 94       	cli
    1698:	0f 92       	push	r0
    169a:	1e 8d       	ldd	r17, Y+30	; 0x1e
    169c:	91 e1       	ldi	r25, 0x11	; 17
    169e:	e9 2e       	mov	r14, r25
    16a0:	f1 2c       	mov	r15, r1
    16a2:	ec 0e       	add	r14, r28
    16a4:	fd 1e       	adc	r15, r29
    16a6:	0b c0       	rjmp	.+22     	; 0x16be <prvUnlockQueue+0x36>
    16a8:	89 89       	ldd	r24, Y+17	; 0x11
    16aa:	88 23       	and	r24, r24
    16ac:	51 f0       	breq	.+20     	; 0x16c2 <prvUnlockQueue+0x3a>
    16ae:	c7 01       	movw	r24, r14
    16b0:	0e 94 bd 14 	call	0x297a	; 0x297a <xTaskRemoveFromEventList>
    16b4:	88 23       	and	r24, r24
    16b6:	11 f0       	breq	.+4      	; 0x16bc <prvUnlockQueue+0x34>
    16b8:	0e 94 88 13 	call	0x2710	; 0x2710 <vTaskMissedYield>
    16bc:	11 50       	subi	r17, 0x01	; 1
    16be:	11 16       	cp	r1, r17
    16c0:	9c f3       	brlt	.-26     	; 0x16a8 <prvUnlockQueue+0x20>
    16c2:	8f ef       	ldi	r24, 0xFF	; 255
    16c4:	8e 8f       	std	Y+30, r24	; 0x1e
    16c6:	0f 90       	pop	r0
    16c8:	0f be       	out	0x3f, r0	; 63
    16ca:	0f b6       	in	r0, 0x3f	; 63
    16cc:	f8 94       	cli
    16ce:	0f 92       	push	r0
    16d0:	1d 8d       	ldd	r17, Y+29	; 0x1d
    16d2:	88 e0       	ldi	r24, 0x08	; 8
    16d4:	e8 2e       	mov	r14, r24
    16d6:	f1 2c       	mov	r15, r1
    16d8:	ec 0e       	add	r14, r28
    16da:	fd 1e       	adc	r15, r29
    16dc:	0b c0       	rjmp	.+22     	; 0x16f4 <prvUnlockQueue+0x6c>
    16de:	88 85       	ldd	r24, Y+8	; 0x08
    16e0:	88 23       	and	r24, r24
    16e2:	51 f0       	breq	.+20     	; 0x16f8 <prvUnlockQueue+0x70>
    16e4:	c7 01       	movw	r24, r14
    16e6:	0e 94 bd 14 	call	0x297a	; 0x297a <xTaskRemoveFromEventList>
    16ea:	88 23       	and	r24, r24
    16ec:	11 f0       	breq	.+4      	; 0x16f2 <prvUnlockQueue+0x6a>
    16ee:	0e 94 88 13 	call	0x2710	; 0x2710 <vTaskMissedYield>
    16f2:	11 50       	subi	r17, 0x01	; 1
    16f4:	11 16       	cp	r1, r17
    16f6:	9c f3       	brlt	.-26     	; 0x16de <prvUnlockQueue+0x56>
    16f8:	8f ef       	ldi	r24, 0xFF	; 255
    16fa:	8d 8f       	std	Y+29, r24	; 0x1d
    16fc:	0f 90       	pop	r0
    16fe:	0f be       	out	0x3f, r0	; 63
    1700:	df 91       	pop	r29
    1702:	cf 91       	pop	r28
    1704:	1f 91       	pop	r17
    1706:	ff 90       	pop	r15
    1708:	ef 90       	pop	r14
    170a:	08 95       	ret

0000170c <xQueuePeek>:
    170c:	8f 92       	push	r8
    170e:	9f 92       	push	r9
    1710:	af 92       	push	r10
    1712:	bf 92       	push	r11
    1714:	cf 92       	push	r12
    1716:	df 92       	push	r13
    1718:	ef 92       	push	r14
    171a:	ff 92       	push	r15
    171c:	0f 93       	push	r16
    171e:	1f 93       	push	r17
    1720:	df 93       	push	r29
    1722:	cf 93       	push	r28
    1724:	00 d0       	rcall	.+0      	; 0x1726 <xQueuePeek+0x1a>
    1726:	00 d0       	rcall	.+0      	; 0x1728 <xQueuePeek+0x1c>
    1728:	0f 92       	push	r0
    172a:	cd b7       	in	r28, 0x3d	; 61
    172c:	de b7       	in	r29, 0x3e	; 62
    172e:	5b 01       	movw	r10, r22
    1730:	5d 83       	std	Y+5, r21	; 0x05
    1732:	4c 83       	std	Y+4, r20	; 0x04
    1734:	7c 01       	movw	r14, r24
    1736:	41 e1       	ldi	r20, 0x11	; 17
    1738:	c4 2e       	mov	r12, r20
    173a:	d1 2c       	mov	r13, r1
    173c:	c8 0e       	add	r12, r24
    173e:	d9 1e       	adc	r13, r25
    1740:	20 e0       	ldi	r18, 0x00	; 0
    1742:	8e 01       	movw	r16, r28
    1744:	0f 5f       	subi	r16, 0xFF	; 255
    1746:	1f 4f       	sbci	r17, 0xFF	; 255
    1748:	34 e0       	ldi	r19, 0x04	; 4
    174a:	83 2e       	mov	r8, r19
    174c:	91 2c       	mov	r9, r1
    174e:	8c 0e       	add	r8, r28
    1750:	9d 1e       	adc	r9, r29
    1752:	01 c0       	rjmp	.+2      	; 0x1756 <xQueuePeek+0x4a>
    1754:	21 e0       	ldi	r18, 0x01	; 1
    1756:	0f b6       	in	r0, 0x3f	; 63
    1758:	f8 94       	cli
    175a:	0f 92       	push	r0
    175c:	f7 01       	movw	r30, r14
    175e:	82 8d       	ldd	r24, Z+26	; 0x1a
    1760:	88 23       	and	r24, r24
    1762:	b9 f0       	breq	.+46     	; 0x1792 <xQueuePeek+0x86>
    1764:	06 81       	ldd	r16, Z+6	; 0x06
    1766:	17 81       	ldd	r17, Z+7	; 0x07
    1768:	c7 01       	movw	r24, r14
    176a:	b5 01       	movw	r22, r10
    176c:	0e 94 b9 09 	call	0x1372	; 0x1372 <prvCopyDataFromQueue>
    1770:	f7 01       	movw	r30, r14
    1772:	17 83       	std	Z+7, r17	; 0x07
    1774:	06 83       	std	Z+6, r16	; 0x06
    1776:	81 89       	ldd	r24, Z+17	; 0x11
    1778:	88 23       	and	r24, r24
    177a:	39 f0       	breq	.+14     	; 0x178a <xQueuePeek+0x7e>
    177c:	c6 01       	movw	r24, r12
    177e:	0e 94 bd 14 	call	0x297a	; 0x297a <xTaskRemoveFromEventList>
    1782:	88 23       	and	r24, r24
    1784:	11 f0       	breq	.+4      	; 0x178a <xQueuePeek+0x7e>
    1786:	0e 94 ae 08 	call	0x115c	; 0x115c <vPortYield>
    178a:	0f 90       	pop	r0
    178c:	0f be       	out	0x3f, r0	; 63
    178e:	81 e0       	ldi	r24, 0x01	; 1
    1790:	54 c0       	rjmp	.+168    	; 0x183a <xQueuePeek+0x12e>
    1792:	8c 81       	ldd	r24, Y+4	; 0x04
    1794:	9d 81       	ldd	r25, Y+5	; 0x05
    1796:	89 2b       	or	r24, r25
    1798:	21 f4       	brne	.+8      	; 0x17a2 <xQueuePeek+0x96>
    179a:	0f 90       	pop	r0
    179c:	0f be       	out	0x3f, r0	; 63
    179e:	80 e0       	ldi	r24, 0x00	; 0
    17a0:	4c c0       	rjmp	.+152    	; 0x183a <xQueuePeek+0x12e>
    17a2:	22 23       	and	r18, r18
    17a4:	19 f4       	brne	.+6      	; 0x17ac <xQueuePeek+0xa0>
    17a6:	c8 01       	movw	r24, r16
    17a8:	0e 94 4b 13 	call	0x2696	; 0x2696 <vTaskInternalSetTimeOutState>
    17ac:	0f 90       	pop	r0
    17ae:	0f be       	out	0x3f, r0	; 63
    17b0:	0e 94 dc 12 	call	0x25b8	; 0x25b8 <vTaskSuspendAll>
    17b4:	0f b6       	in	r0, 0x3f	; 63
    17b6:	f8 94       	cli
    17b8:	0f 92       	push	r0
    17ba:	f7 01       	movw	r30, r14
    17bc:	85 8d       	ldd	r24, Z+29	; 0x1d
    17be:	8f 3f       	cpi	r24, 0xFF	; 255
    17c0:	09 f4       	brne	.+2      	; 0x17c4 <xQueuePeek+0xb8>
    17c2:	15 8e       	std	Z+29, r1	; 0x1d
    17c4:	f7 01       	movw	r30, r14
    17c6:	86 8d       	ldd	r24, Z+30	; 0x1e
    17c8:	8f 3f       	cpi	r24, 0xFF	; 255
    17ca:	09 f4       	brne	.+2      	; 0x17ce <xQueuePeek+0xc2>
    17cc:	16 8e       	std	Z+30, r1	; 0x1e
    17ce:	0f 90       	pop	r0
    17d0:	0f be       	out	0x3f, r0	; 63
    17d2:	c8 01       	movw	r24, r16
    17d4:	b4 01       	movw	r22, r8
    17d6:	0e 94 56 13 	call	0x26ac	; 0x26ac <xTaskCheckForTimeOut>
    17da:	88 23       	and	r24, r24
    17dc:	f9 f4       	brne	.+62     	; 0x181c <xQueuePeek+0x110>
    17de:	0f b6       	in	r0, 0x3f	; 63
    17e0:	f8 94       	cli
    17e2:	0f 92       	push	r0
    17e4:	f7 01       	movw	r30, r14
    17e6:	82 8d       	ldd	r24, Z+26	; 0x1a
    17e8:	0f 90       	pop	r0
    17ea:	0f be       	out	0x3f, r0	; 63
    17ec:	88 23       	and	r24, r24
    17ee:	81 f4       	brne	.+32     	; 0x1810 <xQueuePeek+0x104>
    17f0:	6c 81       	ldd	r22, Y+4	; 0x04
    17f2:	7d 81       	ldd	r23, Y+5	; 0x05
    17f4:	c6 01       	movw	r24, r12
    17f6:	0e 94 37 18 	call	0x306e	; 0x306e <vTaskPlaceOnEventList>
    17fa:	c7 01       	movw	r24, r14
    17fc:	0e 94 44 0b 	call	0x1688	; 0x1688 <prvUnlockQueue>
    1800:	0e 94 30 16 	call	0x2c60	; 0x2c60 <xTaskResumeAll>
    1804:	88 23       	and	r24, r24
    1806:	09 f0       	breq	.+2      	; 0x180a <xQueuePeek+0xfe>
    1808:	a5 cf       	rjmp	.-182    	; 0x1754 <xQueuePeek+0x48>
    180a:	0e 94 ae 08 	call	0x115c	; 0x115c <vPortYield>
    180e:	a2 cf       	rjmp	.-188    	; 0x1754 <xQueuePeek+0x48>
    1810:	c7 01       	movw	r24, r14
    1812:	0e 94 44 0b 	call	0x1688	; 0x1688 <prvUnlockQueue>
    1816:	0e 94 30 16 	call	0x2c60	; 0x2c60 <xTaskResumeAll>
    181a:	9c cf       	rjmp	.-200    	; 0x1754 <xQueuePeek+0x48>
    181c:	c7 01       	movw	r24, r14
    181e:	0e 94 44 0b 	call	0x1688	; 0x1688 <prvUnlockQueue>
    1822:	0e 94 30 16 	call	0x2c60	; 0x2c60 <xTaskResumeAll>
    1826:	0f b6       	in	r0, 0x3f	; 63
    1828:	f8 94       	cli
    182a:	0f 92       	push	r0
    182c:	f7 01       	movw	r30, r14
    182e:	82 8d       	ldd	r24, Z+26	; 0x1a
    1830:	0f 90       	pop	r0
    1832:	0f be       	out	0x3f, r0	; 63
    1834:	88 23       	and	r24, r24
    1836:	09 f0       	breq	.+2      	; 0x183a <xQueuePeek+0x12e>
    1838:	8d cf       	rjmp	.-230    	; 0x1754 <xQueuePeek+0x48>
    183a:	0f 90       	pop	r0
    183c:	0f 90       	pop	r0
    183e:	0f 90       	pop	r0
    1840:	0f 90       	pop	r0
    1842:	0f 90       	pop	r0
    1844:	cf 91       	pop	r28
    1846:	df 91       	pop	r29
    1848:	1f 91       	pop	r17
    184a:	0f 91       	pop	r16
    184c:	ff 90       	pop	r15
    184e:	ef 90       	pop	r14
    1850:	df 90       	pop	r13
    1852:	cf 90       	pop	r12
    1854:	bf 90       	pop	r11
    1856:	af 90       	pop	r10
    1858:	9f 90       	pop	r9
    185a:	8f 90       	pop	r8
    185c:	08 95       	ret

0000185e <xQueueSemaphoreTake>:
    185e:	af 92       	push	r10
    1860:	bf 92       	push	r11
    1862:	cf 92       	push	r12
    1864:	df 92       	push	r13
    1866:	ef 92       	push	r14
    1868:	ff 92       	push	r15
    186a:	0f 93       	push	r16
    186c:	1f 93       	push	r17
    186e:	df 93       	push	r29
    1870:	cf 93       	push	r28
    1872:	00 d0       	rcall	.+0      	; 0x1874 <xQueueSemaphoreTake+0x16>
    1874:	00 d0       	rcall	.+0      	; 0x1876 <xQueueSemaphoreTake+0x18>
    1876:	0f 92       	push	r0
    1878:	cd b7       	in	r28, 0x3d	; 61
    187a:	de b7       	in	r29, 0x3e	; 62
    187c:	7d 83       	std	Y+5, r23	; 0x05
    187e:	6c 83       	std	Y+4, r22	; 0x04
    1880:	8c 01       	movw	r16, r24
    1882:	61 e1       	ldi	r22, 0x11	; 17
    1884:	e6 2e       	mov	r14, r22
    1886:	f1 2c       	mov	r15, r1
    1888:	e8 0e       	add	r14, r24
    188a:	f9 1e       	adc	r15, r25
    188c:	20 e0       	ldi	r18, 0x00	; 0
    188e:	6e 01       	movw	r12, r28
    1890:	08 94       	sec
    1892:	c1 1c       	adc	r12, r1
    1894:	d1 1c       	adc	r13, r1
    1896:	54 e0       	ldi	r21, 0x04	; 4
    1898:	a5 2e       	mov	r10, r21
    189a:	b1 2c       	mov	r11, r1
    189c:	ac 0e       	add	r10, r28
    189e:	bd 1e       	adc	r11, r29
    18a0:	01 c0       	rjmp	.+2      	; 0x18a4 <xQueueSemaphoreTake+0x46>
    18a2:	21 e0       	ldi	r18, 0x01	; 1
    18a4:	0f b6       	in	r0, 0x3f	; 63
    18a6:	f8 94       	cli
    18a8:	0f 92       	push	r0
    18aa:	f8 01       	movw	r30, r16
    18ac:	82 8d       	ldd	r24, Z+26	; 0x1a
    18ae:	88 23       	and	r24, r24
    18b0:	89 f0       	breq	.+34     	; 0x18d4 <xQueueSemaphoreTake+0x76>
    18b2:	81 50       	subi	r24, 0x01	; 1
    18b4:	82 8f       	std	Z+26, r24	; 0x1a
    18b6:	80 85       	ldd	r24, Z+8	; 0x08
    18b8:	88 23       	and	r24, r24
    18ba:	41 f0       	breq	.+16     	; 0x18cc <xQueueSemaphoreTake+0x6e>
    18bc:	c8 01       	movw	r24, r16
    18be:	08 96       	adiw	r24, 0x08	; 8
    18c0:	0e 94 bd 14 	call	0x297a	; 0x297a <xTaskRemoveFromEventList>
    18c4:	88 23       	and	r24, r24
    18c6:	11 f0       	breq	.+4      	; 0x18cc <xQueueSemaphoreTake+0x6e>
    18c8:	0e 94 ae 08 	call	0x115c	; 0x115c <vPortYield>
    18cc:	0f 90       	pop	r0
    18ce:	0f be       	out	0x3f, r0	; 63
    18d0:	81 e0       	ldi	r24, 0x01	; 1
    18d2:	54 c0       	rjmp	.+168    	; 0x197c <xQueueSemaphoreTake+0x11e>
    18d4:	8c 81       	ldd	r24, Y+4	; 0x04
    18d6:	9d 81       	ldd	r25, Y+5	; 0x05
    18d8:	89 2b       	or	r24, r25
    18da:	21 f4       	brne	.+8      	; 0x18e4 <xQueueSemaphoreTake+0x86>
    18dc:	0f 90       	pop	r0
    18de:	0f be       	out	0x3f, r0	; 63
    18e0:	80 e0       	ldi	r24, 0x00	; 0
    18e2:	4c c0       	rjmp	.+152    	; 0x197c <xQueueSemaphoreTake+0x11e>
    18e4:	22 23       	and	r18, r18
    18e6:	19 f4       	brne	.+6      	; 0x18ee <xQueueSemaphoreTake+0x90>
    18e8:	c6 01       	movw	r24, r12
    18ea:	0e 94 4b 13 	call	0x2696	; 0x2696 <vTaskInternalSetTimeOutState>
    18ee:	0f 90       	pop	r0
    18f0:	0f be       	out	0x3f, r0	; 63
    18f2:	0e 94 dc 12 	call	0x25b8	; 0x25b8 <vTaskSuspendAll>
    18f6:	0f b6       	in	r0, 0x3f	; 63
    18f8:	f8 94       	cli
    18fa:	0f 92       	push	r0
    18fc:	f8 01       	movw	r30, r16
    18fe:	85 8d       	ldd	r24, Z+29	; 0x1d
    1900:	8f 3f       	cpi	r24, 0xFF	; 255
    1902:	09 f4       	brne	.+2      	; 0x1906 <xQueueSemaphoreTake+0xa8>
    1904:	15 8e       	std	Z+29, r1	; 0x1d
    1906:	f8 01       	movw	r30, r16
    1908:	86 8d       	ldd	r24, Z+30	; 0x1e
    190a:	8f 3f       	cpi	r24, 0xFF	; 255
    190c:	09 f4       	brne	.+2      	; 0x1910 <xQueueSemaphoreTake+0xb2>
    190e:	16 8e       	std	Z+30, r1	; 0x1e
    1910:	0f 90       	pop	r0
    1912:	0f be       	out	0x3f, r0	; 63
    1914:	c6 01       	movw	r24, r12
    1916:	b5 01       	movw	r22, r10
    1918:	0e 94 56 13 	call	0x26ac	; 0x26ac <xTaskCheckForTimeOut>
    191c:	88 23       	and	r24, r24
    191e:	f9 f4       	brne	.+62     	; 0x195e <xQueueSemaphoreTake+0x100>
    1920:	0f b6       	in	r0, 0x3f	; 63
    1922:	f8 94       	cli
    1924:	0f 92       	push	r0
    1926:	f8 01       	movw	r30, r16
    1928:	82 8d       	ldd	r24, Z+26	; 0x1a
    192a:	0f 90       	pop	r0
    192c:	0f be       	out	0x3f, r0	; 63
    192e:	88 23       	and	r24, r24
    1930:	81 f4       	brne	.+32     	; 0x1952 <xQueueSemaphoreTake+0xf4>
    1932:	6c 81       	ldd	r22, Y+4	; 0x04
    1934:	7d 81       	ldd	r23, Y+5	; 0x05
    1936:	c7 01       	movw	r24, r14
    1938:	0e 94 37 18 	call	0x306e	; 0x306e <vTaskPlaceOnEventList>
    193c:	c8 01       	movw	r24, r16
    193e:	0e 94 44 0b 	call	0x1688	; 0x1688 <prvUnlockQueue>
    1942:	0e 94 30 16 	call	0x2c60	; 0x2c60 <xTaskResumeAll>
    1946:	88 23       	and	r24, r24
    1948:	09 f0       	breq	.+2      	; 0x194c <xQueueSemaphoreTake+0xee>
    194a:	ab cf       	rjmp	.-170    	; 0x18a2 <xQueueSemaphoreTake+0x44>
    194c:	0e 94 ae 08 	call	0x115c	; 0x115c <vPortYield>
    1950:	a8 cf       	rjmp	.-176    	; 0x18a2 <xQueueSemaphoreTake+0x44>
    1952:	c8 01       	movw	r24, r16
    1954:	0e 94 44 0b 	call	0x1688	; 0x1688 <prvUnlockQueue>
    1958:	0e 94 30 16 	call	0x2c60	; 0x2c60 <xTaskResumeAll>
    195c:	a2 cf       	rjmp	.-188    	; 0x18a2 <xQueueSemaphoreTake+0x44>
    195e:	c8 01       	movw	r24, r16
    1960:	0e 94 44 0b 	call	0x1688	; 0x1688 <prvUnlockQueue>
    1964:	0e 94 30 16 	call	0x2c60	; 0x2c60 <xTaskResumeAll>
    1968:	0f b6       	in	r0, 0x3f	; 63
    196a:	f8 94       	cli
    196c:	0f 92       	push	r0
    196e:	f8 01       	movw	r30, r16
    1970:	82 8d       	ldd	r24, Z+26	; 0x1a
    1972:	0f 90       	pop	r0
    1974:	0f be       	out	0x3f, r0	; 63
    1976:	88 23       	and	r24, r24
    1978:	09 f0       	breq	.+2      	; 0x197c <xQueueSemaphoreTake+0x11e>
    197a:	93 cf       	rjmp	.-218    	; 0x18a2 <xQueueSemaphoreTake+0x44>
    197c:	0f 90       	pop	r0
    197e:	0f 90       	pop	r0
    1980:	0f 90       	pop	r0
    1982:	0f 90       	pop	r0
    1984:	0f 90       	pop	r0
    1986:	cf 91       	pop	r28
    1988:	df 91       	pop	r29
    198a:	1f 91       	pop	r17
    198c:	0f 91       	pop	r16
    198e:	ff 90       	pop	r15
    1990:	ef 90       	pop	r14
    1992:	df 90       	pop	r13
    1994:	cf 90       	pop	r12
    1996:	bf 90       	pop	r11
    1998:	af 90       	pop	r10
    199a:	08 95       	ret

0000199c <xQueueReceive>:
    199c:	6f 92       	push	r6
    199e:	7f 92       	push	r7
    19a0:	8f 92       	push	r8
    19a2:	9f 92       	push	r9
    19a4:	af 92       	push	r10
    19a6:	bf 92       	push	r11
    19a8:	cf 92       	push	r12
    19aa:	df 92       	push	r13
    19ac:	ff 92       	push	r15
    19ae:	0f 93       	push	r16
    19b0:	1f 93       	push	r17
    19b2:	df 93       	push	r29
    19b4:	cf 93       	push	r28
    19b6:	00 d0       	rcall	.+0      	; 0x19b8 <xQueueReceive+0x1c>
    19b8:	00 d0       	rcall	.+0      	; 0x19ba <xQueueReceive+0x1e>
    19ba:	0f 92       	push	r0
    19bc:	cd b7       	in	r28, 0x3d	; 61
    19be:	de b7       	in	r29, 0x3e	; 62
    19c0:	5b 01       	movw	r10, r22
    19c2:	5d 83       	std	Y+5, r21	; 0x05
    19c4:	4c 83       	std	Y+4, r20	; 0x04
    19c6:	8c 01       	movw	r16, r24
    19c8:	e1 e1       	ldi	r30, 0x11	; 17
    19ca:	ce 2e       	mov	r12, r30
    19cc:	d1 2c       	mov	r13, r1
    19ce:	c8 0e       	add	r12, r24
    19d0:	d9 1e       	adc	r13, r25
    19d2:	20 e0       	ldi	r18, 0x00	; 0
    19d4:	4e 01       	movw	r8, r28
    19d6:	08 94       	sec
    19d8:	81 1c       	adc	r8, r1
    19da:	91 1c       	adc	r9, r1
    19dc:	74 e0       	ldi	r23, 0x04	; 4
    19de:	67 2e       	mov	r6, r23
    19e0:	71 2c       	mov	r7, r1
    19e2:	6c 0e       	add	r6, r28
    19e4:	7d 1e       	adc	r7, r29
    19e6:	01 c0       	rjmp	.+2      	; 0x19ea <xQueueReceive+0x4e>
    19e8:	21 e0       	ldi	r18, 0x01	; 1
    19ea:	0f b6       	in	r0, 0x3f	; 63
    19ec:	f8 94       	cli
    19ee:	0f 92       	push	r0
    19f0:	f8 01       	movw	r30, r16
    19f2:	f2 8c       	ldd	r15, Z+26	; 0x1a
    19f4:	ff 20       	and	r15, r15
    19f6:	b1 f0       	breq	.+44     	; 0x1a24 <xQueueReceive+0x88>
    19f8:	c8 01       	movw	r24, r16
    19fa:	b5 01       	movw	r22, r10
    19fc:	0e 94 b9 09 	call	0x1372	; 0x1372 <prvCopyDataFromQueue>
    1a00:	fa 94       	dec	r15
    1a02:	f8 01       	movw	r30, r16
    1a04:	f2 8e       	std	Z+26, r15	; 0x1a
    1a06:	80 85       	ldd	r24, Z+8	; 0x08
    1a08:	88 23       	and	r24, r24
    1a0a:	41 f0       	breq	.+16     	; 0x1a1c <xQueueReceive+0x80>
    1a0c:	c8 01       	movw	r24, r16
    1a0e:	08 96       	adiw	r24, 0x08	; 8
    1a10:	0e 94 bd 14 	call	0x297a	; 0x297a <xTaskRemoveFromEventList>
    1a14:	88 23       	and	r24, r24
    1a16:	11 f0       	breq	.+4      	; 0x1a1c <xQueueReceive+0x80>
    1a18:	0e 94 ae 08 	call	0x115c	; 0x115c <vPortYield>
    1a1c:	0f 90       	pop	r0
    1a1e:	0f be       	out	0x3f, r0	; 63
    1a20:	81 e0       	ldi	r24, 0x01	; 1
    1a22:	54 c0       	rjmp	.+168    	; 0x1acc <xQueueReceive+0x130>
    1a24:	8c 81       	ldd	r24, Y+4	; 0x04
    1a26:	9d 81       	ldd	r25, Y+5	; 0x05
    1a28:	89 2b       	or	r24, r25
    1a2a:	21 f4       	brne	.+8      	; 0x1a34 <xQueueReceive+0x98>
    1a2c:	0f 90       	pop	r0
    1a2e:	0f be       	out	0x3f, r0	; 63
    1a30:	80 e0       	ldi	r24, 0x00	; 0
    1a32:	4c c0       	rjmp	.+152    	; 0x1acc <xQueueReceive+0x130>
    1a34:	22 23       	and	r18, r18
    1a36:	19 f4       	brne	.+6      	; 0x1a3e <xQueueReceive+0xa2>
    1a38:	c4 01       	movw	r24, r8
    1a3a:	0e 94 4b 13 	call	0x2696	; 0x2696 <vTaskInternalSetTimeOutState>
    1a3e:	0f 90       	pop	r0
    1a40:	0f be       	out	0x3f, r0	; 63
    1a42:	0e 94 dc 12 	call	0x25b8	; 0x25b8 <vTaskSuspendAll>
    1a46:	0f b6       	in	r0, 0x3f	; 63
    1a48:	f8 94       	cli
    1a4a:	0f 92       	push	r0
    1a4c:	f8 01       	movw	r30, r16
    1a4e:	85 8d       	ldd	r24, Z+29	; 0x1d
    1a50:	8f 3f       	cpi	r24, 0xFF	; 255
    1a52:	09 f4       	brne	.+2      	; 0x1a56 <xQueueReceive+0xba>
    1a54:	15 8e       	std	Z+29, r1	; 0x1d
    1a56:	f8 01       	movw	r30, r16
    1a58:	86 8d       	ldd	r24, Z+30	; 0x1e
    1a5a:	8f 3f       	cpi	r24, 0xFF	; 255
    1a5c:	09 f4       	brne	.+2      	; 0x1a60 <xQueueReceive+0xc4>
    1a5e:	16 8e       	std	Z+30, r1	; 0x1e
    1a60:	0f 90       	pop	r0
    1a62:	0f be       	out	0x3f, r0	; 63
    1a64:	c4 01       	movw	r24, r8
    1a66:	b3 01       	movw	r22, r6
    1a68:	0e 94 56 13 	call	0x26ac	; 0x26ac <xTaskCheckForTimeOut>
    1a6c:	88 23       	and	r24, r24
    1a6e:	f9 f4       	brne	.+62     	; 0x1aae <xQueueReceive+0x112>
    1a70:	0f b6       	in	r0, 0x3f	; 63
    1a72:	f8 94       	cli
    1a74:	0f 92       	push	r0
    1a76:	f8 01       	movw	r30, r16
    1a78:	82 8d       	ldd	r24, Z+26	; 0x1a
    1a7a:	0f 90       	pop	r0
    1a7c:	0f be       	out	0x3f, r0	; 63
    1a7e:	88 23       	and	r24, r24
    1a80:	81 f4       	brne	.+32     	; 0x1aa2 <xQueueReceive+0x106>
    1a82:	6c 81       	ldd	r22, Y+4	; 0x04
    1a84:	7d 81       	ldd	r23, Y+5	; 0x05
    1a86:	c6 01       	movw	r24, r12
    1a88:	0e 94 37 18 	call	0x306e	; 0x306e <vTaskPlaceOnEventList>
    1a8c:	c8 01       	movw	r24, r16
    1a8e:	0e 94 44 0b 	call	0x1688	; 0x1688 <prvUnlockQueue>
    1a92:	0e 94 30 16 	call	0x2c60	; 0x2c60 <xTaskResumeAll>
    1a96:	88 23       	and	r24, r24
    1a98:	09 f0       	breq	.+2      	; 0x1a9c <xQueueReceive+0x100>
    1a9a:	a6 cf       	rjmp	.-180    	; 0x19e8 <xQueueReceive+0x4c>
    1a9c:	0e 94 ae 08 	call	0x115c	; 0x115c <vPortYield>
    1aa0:	a3 cf       	rjmp	.-186    	; 0x19e8 <xQueueReceive+0x4c>
    1aa2:	c8 01       	movw	r24, r16
    1aa4:	0e 94 44 0b 	call	0x1688	; 0x1688 <prvUnlockQueue>
    1aa8:	0e 94 30 16 	call	0x2c60	; 0x2c60 <xTaskResumeAll>
    1aac:	9d cf       	rjmp	.-198    	; 0x19e8 <xQueueReceive+0x4c>
    1aae:	c8 01       	movw	r24, r16
    1ab0:	0e 94 44 0b 	call	0x1688	; 0x1688 <prvUnlockQueue>
    1ab4:	0e 94 30 16 	call	0x2c60	; 0x2c60 <xTaskResumeAll>
    1ab8:	0f b6       	in	r0, 0x3f	; 63
    1aba:	f8 94       	cli
    1abc:	0f 92       	push	r0
    1abe:	f8 01       	movw	r30, r16
    1ac0:	82 8d       	ldd	r24, Z+26	; 0x1a
    1ac2:	0f 90       	pop	r0
    1ac4:	0f be       	out	0x3f, r0	; 63
    1ac6:	88 23       	and	r24, r24
    1ac8:	09 f0       	breq	.+2      	; 0x1acc <xQueueReceive+0x130>
    1aca:	8e cf       	rjmp	.-228    	; 0x19e8 <xQueueReceive+0x4c>
    1acc:	0f 90       	pop	r0
    1ace:	0f 90       	pop	r0
    1ad0:	0f 90       	pop	r0
    1ad2:	0f 90       	pop	r0
    1ad4:	0f 90       	pop	r0
    1ad6:	cf 91       	pop	r28
    1ad8:	df 91       	pop	r29
    1ada:	1f 91       	pop	r17
    1adc:	0f 91       	pop	r16
    1ade:	ff 90       	pop	r15
    1ae0:	df 90       	pop	r13
    1ae2:	cf 90       	pop	r12
    1ae4:	bf 90       	pop	r11
    1ae6:	af 90       	pop	r10
    1ae8:	9f 90       	pop	r9
    1aea:	8f 90       	pop	r8
    1aec:	7f 90       	pop	r7
    1aee:	6f 90       	pop	r6
    1af0:	08 95       	ret

00001af2 <xQueueGenericSend>:
    1af2:	6f 92       	push	r6
    1af4:	7f 92       	push	r7
    1af6:	9f 92       	push	r9
    1af8:	af 92       	push	r10
    1afa:	bf 92       	push	r11
    1afc:	cf 92       	push	r12
    1afe:	df 92       	push	r13
    1b00:	ef 92       	push	r14
    1b02:	ff 92       	push	r15
    1b04:	0f 93       	push	r16
    1b06:	1f 93       	push	r17
    1b08:	df 93       	push	r29
    1b0a:	cf 93       	push	r28
    1b0c:	00 d0       	rcall	.+0      	; 0x1b0e <xQueueGenericSend+0x1c>
    1b0e:	00 d0       	rcall	.+0      	; 0x1b10 <xQueueGenericSend+0x1e>
    1b10:	0f 92       	push	r0
    1b12:	cd b7       	in	r28, 0x3d	; 61
    1b14:	de b7       	in	r29, 0x3e	; 62
    1b16:	6b 01       	movw	r12, r22
    1b18:	5d 83       	std	Y+5, r21	; 0x05
    1b1a:	4c 83       	std	Y+4, r20	; 0x04
    1b1c:	92 2e       	mov	r9, r18
    1b1e:	8c 01       	movw	r16, r24
    1b20:	a8 e0       	ldi	r26, 0x08	; 8
    1b22:	ea 2e       	mov	r14, r26
    1b24:	f1 2c       	mov	r15, r1
    1b26:	e8 0e       	add	r14, r24
    1b28:	f9 1e       	adc	r15, r25
    1b2a:	20 e0       	ldi	r18, 0x00	; 0
    1b2c:	5e 01       	movw	r10, r28
    1b2e:	08 94       	sec
    1b30:	a1 1c       	adc	r10, r1
    1b32:	b1 1c       	adc	r11, r1
    1b34:	f4 e0       	ldi	r31, 0x04	; 4
    1b36:	6f 2e       	mov	r6, r31
    1b38:	71 2c       	mov	r7, r1
    1b3a:	6c 0e       	add	r6, r28
    1b3c:	7d 1e       	adc	r7, r29
    1b3e:	01 c0       	rjmp	.+2      	; 0x1b42 <xQueueGenericSend+0x50>
    1b40:	21 e0       	ldi	r18, 0x01	; 1
    1b42:	0f b6       	in	r0, 0x3f	; 63
    1b44:	f8 94       	cli
    1b46:	0f 92       	push	r0
    1b48:	f8 01       	movw	r30, r16
    1b4a:	92 8d       	ldd	r25, Z+26	; 0x1a
    1b4c:	83 8d       	ldd	r24, Z+27	; 0x1b
    1b4e:	98 17       	cp	r25, r24
    1b50:	18 f0       	brcs	.+6      	; 0x1b58 <xQueueGenericSend+0x66>
    1b52:	f2 e0       	ldi	r31, 0x02	; 2
    1b54:	9f 16       	cp	r9, r31
    1b56:	c9 f4       	brne	.+50     	; 0x1b8a <xQueueGenericSend+0x98>
    1b58:	c8 01       	movw	r24, r16
    1b5a:	b6 01       	movw	r22, r12
    1b5c:	49 2d       	mov	r20, r9
    1b5e:	0e 94 6f 09 	call	0x12de	; 0x12de <prvCopyDataToQueue>
    1b62:	98 2f       	mov	r25, r24
    1b64:	f8 01       	movw	r30, r16
    1b66:	81 89       	ldd	r24, Z+17	; 0x11
    1b68:	88 23       	and	r24, r24
    1b6a:	39 f0       	breq	.+14     	; 0x1b7a <xQueueGenericSend+0x88>
    1b6c:	c8 01       	movw	r24, r16
    1b6e:	41 96       	adiw	r24, 0x11	; 17
    1b70:	0e 94 bd 14 	call	0x297a	; 0x297a <xTaskRemoveFromEventList>
    1b74:	88 23       	and	r24, r24
    1b76:	29 f0       	breq	.+10     	; 0x1b82 <xQueueGenericSend+0x90>
    1b78:	02 c0       	rjmp	.+4      	; 0x1b7e <xQueueGenericSend+0x8c>
    1b7a:	99 23       	and	r25, r25
    1b7c:	11 f0       	breq	.+4      	; 0x1b82 <xQueueGenericSend+0x90>
    1b7e:	0e 94 ae 08 	call	0x115c	; 0x115c <vPortYield>
    1b82:	0f 90       	pop	r0
    1b84:	0f be       	out	0x3f, r0	; 63
    1b86:	81 e0       	ldi	r24, 0x01	; 1
    1b88:	4c c0       	rjmp	.+152    	; 0x1c22 <xQueueGenericSend+0x130>
    1b8a:	8c 81       	ldd	r24, Y+4	; 0x04
    1b8c:	9d 81       	ldd	r25, Y+5	; 0x05
    1b8e:	89 2b       	or	r24, r25
    1b90:	19 f4       	brne	.+6      	; 0x1b98 <xQueueGenericSend+0xa6>
    1b92:	0f 90       	pop	r0
    1b94:	0f be       	out	0x3f, r0	; 63
    1b96:	44 c0       	rjmp	.+136    	; 0x1c20 <xQueueGenericSend+0x12e>
    1b98:	22 23       	and	r18, r18
    1b9a:	19 f4       	brne	.+6      	; 0x1ba2 <xQueueGenericSend+0xb0>
    1b9c:	c5 01       	movw	r24, r10
    1b9e:	0e 94 4b 13 	call	0x2696	; 0x2696 <vTaskInternalSetTimeOutState>
    1ba2:	0f 90       	pop	r0
    1ba4:	0f be       	out	0x3f, r0	; 63
    1ba6:	0e 94 dc 12 	call	0x25b8	; 0x25b8 <vTaskSuspendAll>
    1baa:	0f b6       	in	r0, 0x3f	; 63
    1bac:	f8 94       	cli
    1bae:	0f 92       	push	r0
    1bb0:	f8 01       	movw	r30, r16
    1bb2:	85 8d       	ldd	r24, Z+29	; 0x1d
    1bb4:	8f 3f       	cpi	r24, 0xFF	; 255
    1bb6:	09 f4       	brne	.+2      	; 0x1bba <xQueueGenericSend+0xc8>
    1bb8:	15 8e       	std	Z+29, r1	; 0x1d
    1bba:	f8 01       	movw	r30, r16
    1bbc:	86 8d       	ldd	r24, Z+30	; 0x1e
    1bbe:	8f 3f       	cpi	r24, 0xFF	; 255
    1bc0:	09 f4       	brne	.+2      	; 0x1bc4 <xQueueGenericSend+0xd2>
    1bc2:	16 8e       	std	Z+30, r1	; 0x1e
    1bc4:	0f 90       	pop	r0
    1bc6:	0f be       	out	0x3f, r0	; 63
    1bc8:	c5 01       	movw	r24, r10
    1bca:	b3 01       	movw	r22, r6
    1bcc:	0e 94 56 13 	call	0x26ac	; 0x26ac <xTaskCheckForTimeOut>
    1bd0:	88 23       	and	r24, r24
    1bd2:	09 f5       	brne	.+66     	; 0x1c16 <xQueueGenericSend+0x124>
    1bd4:	0f b6       	in	r0, 0x3f	; 63
    1bd6:	f8 94       	cli
    1bd8:	0f 92       	push	r0
    1bda:	f8 01       	movw	r30, r16
    1bdc:	92 8d       	ldd	r25, Z+26	; 0x1a
    1bde:	0f 90       	pop	r0
    1be0:	0f be       	out	0x3f, r0	; 63
    1be2:	f8 01       	movw	r30, r16
    1be4:	83 8d       	ldd	r24, Z+27	; 0x1b
    1be6:	98 17       	cp	r25, r24
    1be8:	81 f4       	brne	.+32     	; 0x1c0a <xQueueGenericSend+0x118>
    1bea:	6c 81       	ldd	r22, Y+4	; 0x04
    1bec:	7d 81       	ldd	r23, Y+5	; 0x05
    1bee:	c7 01       	movw	r24, r14
    1bf0:	0e 94 37 18 	call	0x306e	; 0x306e <vTaskPlaceOnEventList>
    1bf4:	c8 01       	movw	r24, r16
    1bf6:	0e 94 44 0b 	call	0x1688	; 0x1688 <prvUnlockQueue>
    1bfa:	0e 94 30 16 	call	0x2c60	; 0x2c60 <xTaskResumeAll>
    1bfe:	88 23       	and	r24, r24
    1c00:	09 f0       	breq	.+2      	; 0x1c04 <xQueueGenericSend+0x112>
    1c02:	9e cf       	rjmp	.-196    	; 0x1b40 <xQueueGenericSend+0x4e>
    1c04:	0e 94 ae 08 	call	0x115c	; 0x115c <vPortYield>
    1c08:	9b cf       	rjmp	.-202    	; 0x1b40 <xQueueGenericSend+0x4e>
    1c0a:	c8 01       	movw	r24, r16
    1c0c:	0e 94 44 0b 	call	0x1688	; 0x1688 <prvUnlockQueue>
    1c10:	0e 94 30 16 	call	0x2c60	; 0x2c60 <xTaskResumeAll>
    1c14:	95 cf       	rjmp	.-214    	; 0x1b40 <xQueueGenericSend+0x4e>
    1c16:	c8 01       	movw	r24, r16
    1c18:	0e 94 44 0b 	call	0x1688	; 0x1688 <prvUnlockQueue>
    1c1c:	0e 94 30 16 	call	0x2c60	; 0x2c60 <xTaskResumeAll>
    1c20:	80 e0       	ldi	r24, 0x00	; 0
    1c22:	0f 90       	pop	r0
    1c24:	0f 90       	pop	r0
    1c26:	0f 90       	pop	r0
    1c28:	0f 90       	pop	r0
    1c2a:	0f 90       	pop	r0
    1c2c:	cf 91       	pop	r28
    1c2e:	df 91       	pop	r29
    1c30:	1f 91       	pop	r17
    1c32:	0f 91       	pop	r16
    1c34:	ff 90       	pop	r15
    1c36:	ef 90       	pop	r14
    1c38:	df 90       	pop	r13
    1c3a:	cf 90       	pop	r12
    1c3c:	bf 90       	pop	r11
    1c3e:	af 90       	pop	r10
    1c40:	9f 90       	pop	r9
    1c42:	7f 90       	pop	r7
    1c44:	6f 90       	pop	r6
    1c46:	08 95       	ret

00001c48 <xQueueGenericReset>:
    1c48:	cf 93       	push	r28
    1c4a:	df 93       	push	r29
    1c4c:	ec 01       	movw	r28, r24
    1c4e:	0f b6       	in	r0, 0x3f	; 63
    1c50:	f8 94       	cli
    1c52:	0f 92       	push	r0
    1c54:	ec 8d       	ldd	r30, Y+28	; 0x1c
    1c56:	2b 8d       	ldd	r18, Y+27	; 0x1b
    1c58:	e2 9f       	mul	r30, r18
    1c5a:	c0 01       	movw	r24, r0
    1c5c:	11 24       	eor	r1, r1
    1c5e:	48 81       	ld	r20, Y
    1c60:	59 81       	ldd	r21, Y+1	; 0x01
    1c62:	84 0f       	add	r24, r20
    1c64:	95 1f       	adc	r25, r21
    1c66:	9b 83       	std	Y+3, r25	; 0x03
    1c68:	8a 83       	std	Y+2, r24	; 0x02
    1c6a:	1a 8e       	std	Y+26, r1	; 0x1a
    1c6c:	5d 83       	std	Y+5, r21	; 0x05
    1c6e:	4c 83       	std	Y+4, r20	; 0x04
    1c70:	30 e0       	ldi	r19, 0x00	; 0
    1c72:	21 50       	subi	r18, 0x01	; 1
    1c74:	30 40       	sbci	r19, 0x00	; 0
    1c76:	f0 e0       	ldi	r31, 0x00	; 0
    1c78:	2e 9f       	mul	r18, r30
    1c7a:	c0 01       	movw	r24, r0
    1c7c:	2f 9f       	mul	r18, r31
    1c7e:	90 0d       	add	r25, r0
    1c80:	3e 9f       	mul	r19, r30
    1c82:	90 0d       	add	r25, r0
    1c84:	11 24       	eor	r1, r1
    1c86:	48 0f       	add	r20, r24
    1c88:	59 1f       	adc	r21, r25
    1c8a:	5f 83       	std	Y+7, r21	; 0x07
    1c8c:	4e 83       	std	Y+6, r20	; 0x06
    1c8e:	8f ef       	ldi	r24, 0xFF	; 255
    1c90:	8d 8f       	std	Y+29, r24	; 0x1d
    1c92:	8e 8f       	std	Y+30, r24	; 0x1e
    1c94:	66 23       	and	r22, r22
    1c96:	61 f4       	brne	.+24     	; 0x1cb0 <xQueueGenericReset+0x68>
    1c98:	88 85       	ldd	r24, Y+8	; 0x08
    1c9a:	88 23       	and	r24, r24
    1c9c:	89 f0       	breq	.+34     	; 0x1cc0 <xQueueGenericReset+0x78>
    1c9e:	ce 01       	movw	r24, r28
    1ca0:	08 96       	adiw	r24, 0x08	; 8
    1ca2:	0e 94 bd 14 	call	0x297a	; 0x297a <xTaskRemoveFromEventList>
    1ca6:	88 23       	and	r24, r24
    1ca8:	59 f0       	breq	.+22     	; 0x1cc0 <xQueueGenericReset+0x78>
    1caa:	0e 94 ae 08 	call	0x115c	; 0x115c <vPortYield>
    1cae:	08 c0       	rjmp	.+16     	; 0x1cc0 <xQueueGenericReset+0x78>
    1cb0:	ce 01       	movw	r24, r28
    1cb2:	08 96       	adiw	r24, 0x08	; 8
    1cb4:	0e 94 a3 03 	call	0x746	; 0x746 <vListInitialise>
    1cb8:	ce 01       	movw	r24, r28
    1cba:	41 96       	adiw	r24, 0x11	; 17
    1cbc:	0e 94 a3 03 	call	0x746	; 0x746 <vListInitialise>
    1cc0:	0f 90       	pop	r0
    1cc2:	0f be       	out	0x3f, r0	; 63
    1cc4:	81 e0       	ldi	r24, 0x01	; 1
    1cc6:	df 91       	pop	r29
    1cc8:	cf 91       	pop	r28
    1cca:	08 95       	ret

00001ccc <xQueueGenericCreate>:
    1ccc:	0f 93       	push	r16
    1cce:	1f 93       	push	r17
    1cd0:	cf 93       	push	r28
    1cd2:	df 93       	push	r29
    1cd4:	08 2f       	mov	r16, r24
    1cd6:	16 2f       	mov	r17, r22
    1cd8:	66 23       	and	r22, r22
    1cda:	19 f4       	brne	.+6      	; 0x1ce2 <xQueueGenericCreate+0x16>
    1cdc:	80 e0       	ldi	r24, 0x00	; 0
    1cde:	90 e0       	ldi	r25, 0x00	; 0
    1ce0:	03 c0       	rjmp	.+6      	; 0x1ce8 <xQueueGenericCreate+0x1c>
    1ce2:	68 9f       	mul	r22, r24
    1ce4:	c0 01       	movw	r24, r0
    1ce6:	11 24       	eor	r1, r1
    1ce8:	4f 96       	adiw	r24, 0x1f	; 31
    1cea:	0e 94 17 09 	call	0x122e	; 0x122e <pvPortMalloc>
    1cee:	ec 01       	movw	r28, r24
    1cf0:	00 97       	sbiw	r24, 0x00	; 0
    1cf2:	71 f0       	breq	.+28     	; 0x1d10 <xQueueGenericCreate+0x44>
    1cf4:	11 23       	and	r17, r17
    1cf6:	19 f4       	brne	.+6      	; 0x1cfe <xQueueGenericCreate+0x32>
    1cf8:	99 83       	std	Y+1, r25	; 0x01
    1cfa:	88 83       	st	Y, r24
    1cfc:	03 c0       	rjmp	.+6      	; 0x1d04 <xQueueGenericCreate+0x38>
    1cfe:	4f 96       	adiw	r24, 0x1f	; 31
    1d00:	99 83       	std	Y+1, r25	; 0x01
    1d02:	88 83       	st	Y, r24
    1d04:	0b 8f       	std	Y+27, r16	; 0x1b
    1d06:	1c 8f       	std	Y+28, r17	; 0x1c
    1d08:	ce 01       	movw	r24, r28
    1d0a:	61 e0       	ldi	r22, 0x01	; 1
    1d0c:	0e 94 24 0e 	call	0x1c48	; 0x1c48 <xQueueGenericReset>
    1d10:	ce 01       	movw	r24, r28
    1d12:	df 91       	pop	r29
    1d14:	cf 91       	pop	r28
    1d16:	1f 91       	pop	r17
    1d18:	0f 91       	pop	r16
    1d1a:	08 95       	ret

00001d1c <xStreamBufferSetTriggerLevel>:
    1d1c:	fc 01       	movw	r30, r24
    1d1e:	61 15       	cp	r22, r1
    1d20:	71 05       	cpc	r23, r1
    1d22:	11 f4       	brne	.+4      	; 0x1d28 <xStreamBufferSetTriggerLevel+0xc>
    1d24:	61 e0       	ldi	r22, 0x01	; 1
    1d26:	70 e0       	ldi	r23, 0x00	; 0
    1d28:	84 81       	ldd	r24, Z+4	; 0x04
    1d2a:	95 81       	ldd	r25, Z+5	; 0x05
    1d2c:	86 17       	cp	r24, r22
    1d2e:	97 07       	cpc	r25, r23
    1d30:	10 f4       	brcc	.+4      	; 0x1d36 <xStreamBufferSetTriggerLevel+0x1a>
    1d32:	80 e0       	ldi	r24, 0x00	; 0
    1d34:	08 95       	ret
    1d36:	77 83       	std	Z+7, r23	; 0x07
    1d38:	66 83       	std	Z+6, r22	; 0x06
    1d3a:	81 e0       	ldi	r24, 0x01	; 1
    1d3c:	08 95       	ret

00001d3e <xStreamBufferSpacesAvailable>:
    1d3e:	fc 01       	movw	r30, r24
    1d40:	44 81       	ldd	r20, Z+4	; 0x04
    1d42:	55 81       	ldd	r21, Z+5	; 0x05
    1d44:	20 81       	ld	r18, Z
    1d46:	31 81       	ldd	r19, Z+1	; 0x01
    1d48:	82 81       	ldd	r24, Z+2	; 0x02
    1d4a:	93 81       	ldd	r25, Z+3	; 0x03
    1d4c:	24 0f       	add	r18, r20
    1d4e:	35 1f       	adc	r19, r21
    1d50:	21 50       	subi	r18, 0x01	; 1
    1d52:	30 40       	sbci	r19, 0x00	; 0
    1d54:	28 1b       	sub	r18, r24
    1d56:	39 0b       	sbc	r19, r25
    1d58:	24 17       	cp	r18, r20
    1d5a:	35 07       	cpc	r19, r21
    1d5c:	10 f0       	brcs	.+4      	; 0x1d62 <xStreamBufferSpacesAvailable+0x24>
    1d5e:	24 1b       	sub	r18, r20
    1d60:	35 0b       	sbc	r19, r21
    1d62:	c9 01       	movw	r24, r18
    1d64:	08 95       	ret

00001d66 <xStreamBufferBytesAvailable>:
    1d66:	fc 01       	movw	r30, r24
    1d68:	44 81       	ldd	r20, Z+4	; 0x04
    1d6a:	55 81       	ldd	r21, Z+5	; 0x05
    1d6c:	22 81       	ldd	r18, Z+2	; 0x02
    1d6e:	33 81       	ldd	r19, Z+3	; 0x03
    1d70:	80 81       	ld	r24, Z
    1d72:	91 81       	ldd	r25, Z+1	; 0x01
    1d74:	24 0f       	add	r18, r20
    1d76:	35 1f       	adc	r19, r21
    1d78:	28 1b       	sub	r18, r24
    1d7a:	39 0b       	sbc	r19, r25
    1d7c:	24 17       	cp	r18, r20
    1d7e:	35 07       	cpc	r19, r21
    1d80:	10 f0       	brcs	.+4      	; 0x1d86 <xStreamBufferBytesAvailable+0x20>
    1d82:	24 1b       	sub	r18, r20
    1d84:	35 0b       	sbc	r19, r21
    1d86:	c9 01       	movw	r24, r18
    1d88:	08 95       	ret

00001d8a <xStreamBufferIsEmpty>:
    1d8a:	fc 01       	movw	r30, r24
    1d8c:	20 81       	ld	r18, Z
    1d8e:	31 81       	ldd	r19, Z+1	; 0x01
    1d90:	82 81       	ldd	r24, Z+2	; 0x02
    1d92:	93 81       	ldd	r25, Z+3	; 0x03
    1d94:	40 e0       	ldi	r20, 0x00	; 0
    1d96:	82 17       	cp	r24, r18
    1d98:	93 07       	cpc	r25, r19
    1d9a:	09 f4       	brne	.+2      	; 0x1d9e <xStreamBufferIsEmpty+0x14>
    1d9c:	41 e0       	ldi	r20, 0x01	; 1
    1d9e:	84 2f       	mov	r24, r20
    1da0:	08 95       	ret

00001da2 <xStreamBufferIsFull>:
    1da2:	fc 01       	movw	r30, r24
    1da4:	86 85       	ldd	r24, Z+14	; 0x0e
    1da6:	80 fd       	sbrc	r24, 0
    1da8:	03 c0       	rjmp	.+6      	; 0x1db0 <xStreamBufferIsFull+0xe>
    1daa:	60 e0       	ldi	r22, 0x00	; 0
    1dac:	70 e0       	ldi	r23, 0x00	; 0
    1dae:	02 c0       	rjmp	.+4      	; 0x1db4 <xStreamBufferIsFull+0x12>
    1db0:	62 e0       	ldi	r22, 0x02	; 2
    1db2:	70 e0       	ldi	r23, 0x00	; 0
    1db4:	44 81       	ldd	r20, Z+4	; 0x04
    1db6:	55 81       	ldd	r21, Z+5	; 0x05
    1db8:	20 81       	ld	r18, Z
    1dba:	31 81       	ldd	r19, Z+1	; 0x01
    1dbc:	82 81       	ldd	r24, Z+2	; 0x02
    1dbe:	93 81       	ldd	r25, Z+3	; 0x03
    1dc0:	24 0f       	add	r18, r20
    1dc2:	35 1f       	adc	r19, r21
    1dc4:	21 50       	subi	r18, 0x01	; 1
    1dc6:	30 40       	sbci	r19, 0x00	; 0
    1dc8:	28 1b       	sub	r18, r24
    1dca:	39 0b       	sbc	r19, r25
    1dcc:	24 17       	cp	r18, r20
    1dce:	35 07       	cpc	r19, r21
    1dd0:	10 f0       	brcs	.+4      	; 0x1dd6 <xStreamBufferIsFull+0x34>
    1dd2:	24 1b       	sub	r18, r20
    1dd4:	35 0b       	sbc	r19, r21
    1dd6:	80 e0       	ldi	r24, 0x00	; 0
    1dd8:	62 17       	cp	r22, r18
    1dda:	73 07       	cpc	r23, r19
    1ddc:	08 f0       	brcs	.+2      	; 0x1de0 <xStreamBufferIsFull+0x3e>
    1dde:	81 e0       	ldi	r24, 0x01	; 1
    1de0:	08 95       	ret

00001de2 <xStreamBufferReceiveCompletedFromISR>:
    1de2:	ef 92       	push	r14
    1de4:	ff 92       	push	r15
    1de6:	0f 93       	push	r16
    1de8:	1f 93       	push	r17
    1dea:	cf 93       	push	r28
    1dec:	df 93       	push	r29
    1dee:	7b 01       	movw	r14, r22
    1df0:	ec 01       	movw	r28, r24
    1df2:	8a 85       	ldd	r24, Y+10	; 0x0a
    1df4:	9b 85       	ldd	r25, Y+11	; 0x0b
    1df6:	89 2b       	or	r24, r25
    1df8:	11 f4       	brne	.+4      	; 0x1dfe <xStreamBufferReceiveCompletedFromISR+0x1c>
    1dfa:	80 e0       	ldi	r24, 0x00	; 0
    1dfc:	0f c0       	rjmp	.+30     	; 0x1e1c <xStreamBufferReceiveCompletedFromISR+0x3a>
    1dfe:	8a 85       	ldd	r24, Y+10	; 0x0a
    1e00:	9b 85       	ldd	r25, Y+11	; 0x0b
    1e02:	40 e0       	ldi	r20, 0x00	; 0
    1e04:	50 e0       	ldi	r21, 0x00	; 0
    1e06:	60 e0       	ldi	r22, 0x00	; 0
    1e08:	70 e0       	ldi	r23, 0x00	; 0
    1e0a:	20 e0       	ldi	r18, 0x00	; 0
    1e0c:	30 e0       	ldi	r19, 0x00	; 0
    1e0e:	00 e0       	ldi	r16, 0x00	; 0
    1e10:	10 e0       	ldi	r17, 0x00	; 0
    1e12:	0e 94 0a 14 	call	0x2814	; 0x2814 <xTaskGenericNotifyFromISR>
    1e16:	1b 86       	std	Y+11, r1	; 0x0b
    1e18:	1a 86       	std	Y+10, r1	; 0x0a
    1e1a:	81 e0       	ldi	r24, 0x01	; 1
    1e1c:	df 91       	pop	r29
    1e1e:	cf 91       	pop	r28
    1e20:	1f 91       	pop	r17
    1e22:	0f 91       	pop	r16
    1e24:	ff 90       	pop	r15
    1e26:	ef 90       	pop	r14
    1e28:	08 95       	ret

00001e2a <xStreamBufferSendCompletedFromISR>:
    1e2a:	ef 92       	push	r14
    1e2c:	ff 92       	push	r15
    1e2e:	0f 93       	push	r16
    1e30:	1f 93       	push	r17
    1e32:	cf 93       	push	r28
    1e34:	df 93       	push	r29
    1e36:	7b 01       	movw	r14, r22
    1e38:	ec 01       	movw	r28, r24
    1e3a:	88 85       	ldd	r24, Y+8	; 0x08
    1e3c:	99 85       	ldd	r25, Y+9	; 0x09
    1e3e:	89 2b       	or	r24, r25
    1e40:	11 f4       	brne	.+4      	; 0x1e46 <xStreamBufferSendCompletedFromISR+0x1c>
    1e42:	80 e0       	ldi	r24, 0x00	; 0
    1e44:	0f c0       	rjmp	.+30     	; 0x1e64 <xStreamBufferSendCompletedFromISR+0x3a>
    1e46:	88 85       	ldd	r24, Y+8	; 0x08
    1e48:	99 85       	ldd	r25, Y+9	; 0x09
    1e4a:	40 e0       	ldi	r20, 0x00	; 0
    1e4c:	50 e0       	ldi	r21, 0x00	; 0
    1e4e:	60 e0       	ldi	r22, 0x00	; 0
    1e50:	70 e0       	ldi	r23, 0x00	; 0
    1e52:	20 e0       	ldi	r18, 0x00	; 0
    1e54:	30 e0       	ldi	r19, 0x00	; 0
    1e56:	00 e0       	ldi	r16, 0x00	; 0
    1e58:	10 e0       	ldi	r17, 0x00	; 0
    1e5a:	0e 94 0a 14 	call	0x2814	; 0x2814 <xTaskGenericNotifyFromISR>
    1e5e:	19 86       	std	Y+9, r1	; 0x09
    1e60:	18 86       	std	Y+8, r1	; 0x08
    1e62:	81 e0       	ldi	r24, 0x01	; 1
    1e64:	df 91       	pop	r29
    1e66:	cf 91       	pop	r28
    1e68:	1f 91       	pop	r17
    1e6a:	0f 91       	pop	r16
    1e6c:	ff 90       	pop	r15
    1e6e:	ef 90       	pop	r14
    1e70:	08 95       	ret

00001e72 <prvReadBytesFromBuffer>:
    1e72:	af 92       	push	r10
    1e74:	bf 92       	push	r11
    1e76:	cf 92       	push	r12
    1e78:	df 92       	push	r13
    1e7a:	ef 92       	push	r14
    1e7c:	ff 92       	push	r15
    1e7e:	0f 93       	push	r16
    1e80:	1f 93       	push	r17
    1e82:	cf 93       	push	r28
    1e84:	df 93       	push	r29
    1e86:	7c 01       	movw	r14, r24
    1e88:	5b 01       	movw	r10, r22
    1e8a:	ba 01       	movw	r22, r20
    1e8c:	89 01       	movw	r16, r18
    1e8e:	62 17       	cp	r22, r18
    1e90:	73 07       	cpc	r23, r19
    1e92:	08 f4       	brcc	.+2      	; 0x1e96 <prvReadBytesFromBuffer+0x24>
    1e94:	8b 01       	movw	r16, r22
    1e96:	01 15       	cp	r16, r1
    1e98:	11 05       	cpc	r17, r1
    1e9a:	d9 f1       	breq	.+118    	; 0x1f12 <prvReadBytesFromBuffer+0xa0>
    1e9c:	d7 01       	movw	r26, r14
    1e9e:	cd 90       	ld	r12, X+
    1ea0:	dc 90       	ld	r13, X
    1ea2:	11 97       	sbiw	r26, 0x01	; 1
    1ea4:	14 96       	adiw	r26, 0x04	; 4
    1ea6:	8d 91       	ld	r24, X+
    1ea8:	9c 91       	ld	r25, X
    1eaa:	15 97       	sbiw	r26, 0x05	; 5
    1eac:	8c 19       	sub	r24, r12
    1eae:	9d 09       	sbc	r25, r13
    1eb0:	e8 01       	movw	r28, r16
    1eb2:	80 17       	cp	r24, r16
    1eb4:	91 07       	cpc	r25, r17
    1eb6:	08 f4       	brcc	.+2      	; 0x1eba <prvReadBytesFromBuffer+0x48>
    1eb8:	ec 01       	movw	r28, r24
    1eba:	f7 01       	movw	r30, r14
    1ebc:	24 85       	ldd	r18, Z+12	; 0x0c
    1ebe:	35 85       	ldd	r19, Z+13	; 0x0d
    1ec0:	2c 0d       	add	r18, r12
    1ec2:	3d 1d       	adc	r19, r13
    1ec4:	c5 01       	movw	r24, r10
    1ec6:	b9 01       	movw	r22, r18
    1ec8:	ae 01       	movw	r20, r28
    1eca:	0e 94 5b 21 	call	0x42b6	; 0x42b6 <memcpy>
    1ece:	c0 17       	cp	r28, r16
    1ed0:	d1 07       	cpc	r29, r17
    1ed2:	80 f4       	brcc	.+32     	; 0x1ef4 <prvReadBytesFromBuffer+0x82>
    1ed4:	95 01       	movw	r18, r10
    1ed6:	2c 0f       	add	r18, r28
    1ed8:	3d 1f       	adc	r19, r29
    1eda:	f8 01       	movw	r30, r16
    1edc:	ec 1b       	sub	r30, r28
    1ede:	fd 0b       	sbc	r31, r29
    1ee0:	d7 01       	movw	r26, r14
    1ee2:	1c 96       	adiw	r26, 0x0c	; 12
    1ee4:	6c 91       	ld	r22, X
    1ee6:	1c 97       	sbiw	r26, 0x0c	; 12
    1ee8:	1d 96       	adiw	r26, 0x0d	; 13
    1eea:	7c 91       	ld	r23, X
    1eec:	c9 01       	movw	r24, r18
    1eee:	af 01       	movw	r20, r30
    1ef0:	0e 94 5b 21 	call	0x42b6	; 0x42b6 <memcpy>
    1ef4:	c8 01       	movw	r24, r16
    1ef6:	8c 0d       	add	r24, r12
    1ef8:	9d 1d       	adc	r25, r13
    1efa:	f7 01       	movw	r30, r14
    1efc:	24 81       	ldd	r18, Z+4	; 0x04
    1efe:	35 81       	ldd	r19, Z+5	; 0x05
    1f00:	82 17       	cp	r24, r18
    1f02:	93 07       	cpc	r25, r19
    1f04:	10 f0       	brcs	.+4      	; 0x1f0a <prvReadBytesFromBuffer+0x98>
    1f06:	82 1b       	sub	r24, r18
    1f08:	93 0b       	sbc	r25, r19
    1f0a:	d7 01       	movw	r26, r14
    1f0c:	11 96       	adiw	r26, 0x01	; 1
    1f0e:	9c 93       	st	X, r25
    1f10:	8e 93       	st	-X, r24
    1f12:	c8 01       	movw	r24, r16
    1f14:	df 91       	pop	r29
    1f16:	cf 91       	pop	r28
    1f18:	1f 91       	pop	r17
    1f1a:	0f 91       	pop	r16
    1f1c:	ff 90       	pop	r15
    1f1e:	ef 90       	pop	r14
    1f20:	df 90       	pop	r13
    1f22:	cf 90       	pop	r12
    1f24:	bf 90       	pop	r11
    1f26:	af 90       	pop	r10
    1f28:	08 95       	ret

00001f2a <prvReadMessageFromBuffer>:
    1f2a:	6f 92       	push	r6
    1f2c:	7f 92       	push	r7
    1f2e:	8f 92       	push	r8
    1f30:	9f 92       	push	r9
    1f32:	af 92       	push	r10
    1f34:	bf 92       	push	r11
    1f36:	cf 92       	push	r12
    1f38:	df 92       	push	r13
    1f3a:	ef 92       	push	r14
    1f3c:	ff 92       	push	r15
    1f3e:	0f 93       	push	r16
    1f40:	1f 93       	push	r17
    1f42:	df 93       	push	r29
    1f44:	cf 93       	push	r28
    1f46:	00 d0       	rcall	.+0      	; 0x1f48 <prvReadMessageFromBuffer+0x1e>
    1f48:	cd b7       	in	r28, 0x3d	; 61
    1f4a:	de b7       	in	r29, 0x3e	; 62
    1f4c:	7c 01       	movw	r14, r24
    1f4e:	3b 01       	movw	r6, r22
    1f50:	5a 01       	movw	r10, r20
    1f52:	69 01       	movw	r12, r18
    1f54:	01 15       	cp	r16, r1
    1f56:	11 05       	cpc	r17, r1
    1f58:	b1 f0       	breq	.+44     	; 0x1f86 <prvReadMessageFromBuffer+0x5c>
    1f5a:	fc 01       	movw	r30, r24
    1f5c:	80 80       	ld	r8, Z
    1f5e:	91 80       	ldd	r9, Z+1	; 0x01
    1f60:	be 01       	movw	r22, r28
    1f62:	6f 5f       	subi	r22, 0xFF	; 255
    1f64:	7f 4f       	sbci	r23, 0xFF	; 255
    1f66:	a8 01       	movw	r20, r16
    1f68:	0e 94 39 0f 	call	0x1e72	; 0x1e72 <prvReadBytesFromBuffer>
    1f6c:	c0 1a       	sub	r12, r16
    1f6e:	d1 0a       	sbc	r13, r17
    1f70:	89 81       	ldd	r24, Y+1	; 0x01
    1f72:	9a 81       	ldd	r25, Y+2	; 0x02
    1f74:	a8 16       	cp	r10, r24
    1f76:	b9 06       	cpc	r11, r25
    1f78:	40 f4       	brcc	.+16     	; 0x1f8a <prvReadMessageFromBuffer+0x60>
    1f7a:	f7 01       	movw	r30, r14
    1f7c:	91 82       	std	Z+1, r9	; 0x01
    1f7e:	80 82       	st	Z, r8
    1f80:	1a 82       	std	Y+2, r1	; 0x02
    1f82:	19 82       	std	Y+1, r1	; 0x01
    1f84:	02 c0       	rjmp	.+4      	; 0x1f8a <prvReadMessageFromBuffer+0x60>
    1f86:	5a 83       	std	Y+2, r21	; 0x02
    1f88:	49 83       	std	Y+1, r20	; 0x01
    1f8a:	49 81       	ldd	r20, Y+1	; 0x01
    1f8c:	5a 81       	ldd	r21, Y+2	; 0x02
    1f8e:	c7 01       	movw	r24, r14
    1f90:	b3 01       	movw	r22, r6
    1f92:	96 01       	movw	r18, r12
    1f94:	0e 94 39 0f 	call	0x1e72	; 0x1e72 <prvReadBytesFromBuffer>
    1f98:	0f 90       	pop	r0
    1f9a:	0f 90       	pop	r0
    1f9c:	cf 91       	pop	r28
    1f9e:	df 91       	pop	r29
    1fa0:	1f 91       	pop	r17
    1fa2:	0f 91       	pop	r16
    1fa4:	ff 90       	pop	r15
    1fa6:	ef 90       	pop	r14
    1fa8:	df 90       	pop	r13
    1faa:	cf 90       	pop	r12
    1fac:	bf 90       	pop	r11
    1fae:	af 90       	pop	r10
    1fb0:	9f 90       	pop	r9
    1fb2:	8f 90       	pop	r8
    1fb4:	7f 90       	pop	r7
    1fb6:	6f 90       	pop	r6
    1fb8:	08 95       	ret

00001fba <xStreamBufferReceiveFromISR>:
    1fba:	cf 92       	push	r12
    1fbc:	df 92       	push	r13
    1fbe:	ef 92       	push	r14
    1fc0:	ff 92       	push	r15
    1fc2:	0f 93       	push	r16
    1fc4:	1f 93       	push	r17
    1fc6:	cf 93       	push	r28
    1fc8:	df 93       	push	r29
    1fca:	79 01       	movw	r14, r18
    1fcc:	ec 01       	movw	r28, r24
    1fce:	8e 85       	ldd	r24, Y+14	; 0x0e
    1fd0:	80 fd       	sbrc	r24, 0
    1fd2:	03 c0       	rjmp	.+6      	; 0x1fda <xStreamBufferReceiveFromISR+0x20>
    1fd4:	00 e0       	ldi	r16, 0x00	; 0
    1fd6:	10 e0       	ldi	r17, 0x00	; 0
    1fd8:	02 c0       	rjmp	.+4      	; 0x1fde <xStreamBufferReceiveFromISR+0x24>
    1fda:	02 e0       	ldi	r16, 0x02	; 2
    1fdc:	10 e0       	ldi	r17, 0x00	; 0
    1fde:	ec 81       	ldd	r30, Y+4	; 0x04
    1fe0:	fd 81       	ldd	r31, Y+5	; 0x05
    1fe2:	2a 81       	ldd	r18, Y+2	; 0x02
    1fe4:	3b 81       	ldd	r19, Y+3	; 0x03
    1fe6:	88 81       	ld	r24, Y
    1fe8:	99 81       	ldd	r25, Y+1	; 0x01
    1fea:	2e 0f       	add	r18, r30
    1fec:	3f 1f       	adc	r19, r31
    1fee:	28 1b       	sub	r18, r24
    1ff0:	39 0b       	sbc	r19, r25
    1ff2:	2e 17       	cp	r18, r30
    1ff4:	3f 07       	cpc	r19, r31
    1ff6:	10 f0       	brcs	.+4      	; 0x1ffc <xStreamBufferReceiveFromISR+0x42>
    1ff8:	2e 1b       	sub	r18, r30
    1ffa:	3f 0b       	sbc	r19, r31
    1ffc:	02 17       	cp	r16, r18
    1ffe:	13 07       	cpc	r17, r19
    2000:	18 f0       	brcs	.+6      	; 0x2008 <xStreamBufferReceiveFromISR+0x4e>
    2002:	cc 24       	eor	r12, r12
    2004:	dd 24       	eor	r13, r13
    2006:	18 c0       	rjmp	.+48     	; 0x2038 <xStreamBufferReceiveFromISR+0x7e>
    2008:	ce 01       	movw	r24, r28
    200a:	0e 94 95 0f 	call	0x1f2a	; 0x1f2a <prvReadMessageFromBuffer>
    200e:	6c 01       	movw	r12, r24
    2010:	00 97       	sbiw	r24, 0x00	; 0
    2012:	91 f0       	breq	.+36     	; 0x2038 <xStreamBufferReceiveFromISR+0x7e>
    2014:	8a 85       	ldd	r24, Y+10	; 0x0a
    2016:	9b 85       	ldd	r25, Y+11	; 0x0b
    2018:	89 2b       	or	r24, r25
    201a:	71 f0       	breq	.+28     	; 0x2038 <xStreamBufferReceiveFromISR+0x7e>
    201c:	8a 85       	ldd	r24, Y+10	; 0x0a
    201e:	9b 85       	ldd	r25, Y+11	; 0x0b
    2020:	40 e0       	ldi	r20, 0x00	; 0
    2022:	50 e0       	ldi	r21, 0x00	; 0
    2024:	60 e0       	ldi	r22, 0x00	; 0
    2026:	70 e0       	ldi	r23, 0x00	; 0
    2028:	20 e0       	ldi	r18, 0x00	; 0
    202a:	30 e0       	ldi	r19, 0x00	; 0
    202c:	00 e0       	ldi	r16, 0x00	; 0
    202e:	10 e0       	ldi	r17, 0x00	; 0
    2030:	0e 94 0a 14 	call	0x2814	; 0x2814 <xTaskGenericNotifyFromISR>
    2034:	1b 86       	std	Y+11, r1	; 0x0b
    2036:	1a 86       	std	Y+10, r1	; 0x0a
    2038:	c6 01       	movw	r24, r12
    203a:	df 91       	pop	r29
    203c:	cf 91       	pop	r28
    203e:	1f 91       	pop	r17
    2040:	0f 91       	pop	r16
    2042:	ff 90       	pop	r15
    2044:	ef 90       	pop	r14
    2046:	df 90       	pop	r13
    2048:	cf 90       	pop	r12
    204a:	08 95       	ret

0000204c <prvWriteBytesToBuffer>:
    204c:	af 92       	push	r10
    204e:	bf 92       	push	r11
    2050:	cf 92       	push	r12
    2052:	df 92       	push	r13
    2054:	ef 92       	push	r14
    2056:	ff 92       	push	r15
    2058:	0f 93       	push	r16
    205a:	1f 93       	push	r17
    205c:	cf 93       	push	r28
    205e:	df 93       	push	r29
    2060:	8c 01       	movw	r16, r24
    2062:	6b 01       	movw	r12, r22
    2064:	7a 01       	movw	r14, r20
    2066:	dc 01       	movw	r26, r24
    2068:	12 96       	adiw	r26, 0x02	; 2
    206a:	ad 90       	ld	r10, X+
    206c:	bc 90       	ld	r11, X
    206e:	13 97       	sbiw	r26, 0x03	; 3
    2070:	14 96       	adiw	r26, 0x04	; 4
    2072:	8d 91       	ld	r24, X+
    2074:	9c 91       	ld	r25, X
    2076:	15 97       	sbiw	r26, 0x05	; 5
    2078:	8a 19       	sub	r24, r10
    207a:	9b 09       	sbc	r25, r11
    207c:	ea 01       	movw	r28, r20
    207e:	84 17       	cp	r24, r20
    2080:	95 07       	cpc	r25, r21
    2082:	08 f4       	brcc	.+2      	; 0x2086 <prvWriteBytesToBuffer+0x3a>
    2084:	ec 01       	movw	r28, r24
    2086:	f8 01       	movw	r30, r16
    2088:	24 85       	ldd	r18, Z+12	; 0x0c
    208a:	35 85       	ldd	r19, Z+13	; 0x0d
    208c:	2a 0d       	add	r18, r10
    208e:	3b 1d       	adc	r19, r11
    2090:	c9 01       	movw	r24, r18
    2092:	b6 01       	movw	r22, r12
    2094:	ae 01       	movw	r20, r28
    2096:	0e 94 5b 21 	call	0x42b6	; 0x42b6 <memcpy>
    209a:	ce 15       	cp	r28, r14
    209c:	df 05       	cpc	r29, r15
    209e:	80 f4       	brcc	.+32     	; 0x20c0 <prvWriteBytesToBuffer+0x74>
    20a0:	f7 01       	movw	r30, r14
    20a2:	ec 1b       	sub	r30, r28
    20a4:	fd 0b       	sbc	r31, r29
    20a6:	96 01       	movw	r18, r12
    20a8:	2c 0f       	add	r18, r28
    20aa:	3d 1f       	adc	r19, r29
    20ac:	d8 01       	movw	r26, r16
    20ae:	1c 96       	adiw	r26, 0x0c	; 12
    20b0:	8c 91       	ld	r24, X
    20b2:	1c 97       	sbiw	r26, 0x0c	; 12
    20b4:	1d 96       	adiw	r26, 0x0d	; 13
    20b6:	9c 91       	ld	r25, X
    20b8:	b9 01       	movw	r22, r18
    20ba:	af 01       	movw	r20, r30
    20bc:	0e 94 5b 21 	call	0x42b6	; 0x42b6 <memcpy>
    20c0:	c7 01       	movw	r24, r14
    20c2:	8a 0d       	add	r24, r10
    20c4:	9b 1d       	adc	r25, r11
    20c6:	f8 01       	movw	r30, r16
    20c8:	24 81       	ldd	r18, Z+4	; 0x04
    20ca:	35 81       	ldd	r19, Z+5	; 0x05
    20cc:	82 17       	cp	r24, r18
    20ce:	93 07       	cpc	r25, r19
    20d0:	10 f0       	brcs	.+4      	; 0x20d6 <prvWriteBytesToBuffer+0x8a>
    20d2:	82 1b       	sub	r24, r18
    20d4:	93 0b       	sbc	r25, r19
    20d6:	d8 01       	movw	r26, r16
    20d8:	13 96       	adiw	r26, 0x03	; 3
    20da:	9c 93       	st	X, r25
    20dc:	8e 93       	st	-X, r24
    20de:	12 97       	sbiw	r26, 0x02	; 2
    20e0:	c7 01       	movw	r24, r14
    20e2:	df 91       	pop	r29
    20e4:	cf 91       	pop	r28
    20e6:	1f 91       	pop	r17
    20e8:	0f 91       	pop	r16
    20ea:	ff 90       	pop	r15
    20ec:	ef 90       	pop	r14
    20ee:	df 90       	pop	r13
    20f0:	cf 90       	pop	r12
    20f2:	bf 90       	pop	r11
    20f4:	af 90       	pop	r10
    20f6:	08 95       	ret

000020f8 <prvWriteMessageToBuffer>:
    20f8:	cf 92       	push	r12
    20fa:	df 92       	push	r13
    20fc:	ef 92       	push	r14
    20fe:	ff 92       	push	r15
    2100:	0f 93       	push	r16
    2102:	1f 93       	push	r17
    2104:	df 93       	push	r29
    2106:	cf 93       	push	r28
    2108:	00 d0       	rcall	.+0      	; 0x210a <prvWriteMessageToBuffer+0x12>
    210a:	cd b7       	in	r28, 0x3d	; 61
    210c:	de b7       	in	r29, 0x3e	; 62
    210e:	7c 01       	movw	r14, r24
    2110:	6b 01       	movw	r12, r22
    2112:	5a 83       	std	Y+2, r21	; 0x02
    2114:	49 83       	std	Y+1, r20	; 0x01
    2116:	21 15       	cp	r18, r1
    2118:	31 05       	cpc	r19, r1
    211a:	b9 f0       	breq	.+46     	; 0x214a <prvWriteMessageToBuffer+0x52>
    211c:	fc 01       	movw	r30, r24
    211e:	86 85       	ldd	r24, Z+14	; 0x0e
    2120:	80 fd       	sbrc	r24, 0
    2122:	07 c0       	rjmp	.+14     	; 0x2132 <prvWriteMessageToBuffer+0x3a>
    2124:	42 17       	cp	r20, r18
    2126:	53 07       	cpc	r21, r19
    2128:	08 f4       	brcc	.+2      	; 0x212c <prvWriteMessageToBuffer+0x34>
    212a:	9a 01       	movw	r18, r20
    212c:	3a 83       	std	Y+2, r19	; 0x02
    212e:	29 83       	std	Y+1, r18	; 0x01
    2130:	1a c0       	rjmp	.+52     	; 0x2166 <prvWriteMessageToBuffer+0x6e>
    2132:	20 17       	cp	r18, r16
    2134:	31 07       	cpc	r19, r17
    2136:	48 f0       	brcs	.+18     	; 0x214a <prvWriteMessageToBuffer+0x52>
    2138:	c7 01       	movw	r24, r14
    213a:	be 01       	movw	r22, r28
    213c:	6f 5f       	subi	r22, 0xFF	; 255
    213e:	7f 4f       	sbci	r23, 0xFF	; 255
    2140:	42 e0       	ldi	r20, 0x02	; 2
    2142:	50 e0       	ldi	r21, 0x00	; 0
    2144:	0e 94 26 10 	call	0x204c	; 0x204c <prvWriteBytesToBuffer>
    2148:	0e c0       	rjmp	.+28     	; 0x2166 <prvWriteMessageToBuffer+0x6e>
    214a:	20 e0       	ldi	r18, 0x00	; 0
    214c:	30 e0       	ldi	r19, 0x00	; 0
    214e:	c9 01       	movw	r24, r18
    2150:	0f 90       	pop	r0
    2152:	0f 90       	pop	r0
    2154:	cf 91       	pop	r28
    2156:	df 91       	pop	r29
    2158:	1f 91       	pop	r17
    215a:	0f 91       	pop	r16
    215c:	ff 90       	pop	r15
    215e:	ef 90       	pop	r14
    2160:	df 90       	pop	r13
    2162:	cf 90       	pop	r12
    2164:	08 95       	ret
    2166:	49 81       	ldd	r20, Y+1	; 0x01
    2168:	5a 81       	ldd	r21, Y+2	; 0x02
    216a:	c7 01       	movw	r24, r14
    216c:	b6 01       	movw	r22, r12
    216e:	0e 94 26 10 	call	0x204c	; 0x204c <prvWriteBytesToBuffer>
    2172:	9c 01       	movw	r18, r24
    2174:	ec cf       	rjmp	.-40     	; 0x214e <prvWriteMessageToBuffer+0x56>

00002176 <xStreamBufferSendFromISR>:
    2176:	cf 92       	push	r12
    2178:	df 92       	push	r13
    217a:	ef 92       	push	r14
    217c:	ff 92       	push	r15
    217e:	0f 93       	push	r16
    2180:	1f 93       	push	r17
    2182:	cf 93       	push	r28
    2184:	df 93       	push	r29
    2186:	79 01       	movw	r14, r18
    2188:	ec 01       	movw	r28, r24
    218a:	8e 85       	ldd	r24, Y+14	; 0x0e
    218c:	80 fd       	sbrc	r24, 0
    218e:	02 c0       	rjmp	.+4      	; 0x2194 <xStreamBufferSendFromISR+0x1e>
    2190:	8a 01       	movw	r16, r20
    2192:	03 c0       	rjmp	.+6      	; 0x219a <xStreamBufferSendFromISR+0x24>
    2194:	8a 01       	movw	r16, r20
    2196:	0e 5f       	subi	r16, 0xFE	; 254
    2198:	1f 4f       	sbci	r17, 0xFF	; 255
    219a:	ec 81       	ldd	r30, Y+4	; 0x04
    219c:	fd 81       	ldd	r31, Y+5	; 0x05
    219e:	28 81       	ld	r18, Y
    21a0:	39 81       	ldd	r19, Y+1	; 0x01
    21a2:	8a 81       	ldd	r24, Y+2	; 0x02
    21a4:	9b 81       	ldd	r25, Y+3	; 0x03
    21a6:	2e 0f       	add	r18, r30
    21a8:	3f 1f       	adc	r19, r31
    21aa:	21 50       	subi	r18, 0x01	; 1
    21ac:	30 40       	sbci	r19, 0x00	; 0
    21ae:	28 1b       	sub	r18, r24
    21b0:	39 0b       	sbc	r19, r25
    21b2:	2e 17       	cp	r18, r30
    21b4:	3f 07       	cpc	r19, r31
    21b6:	10 f0       	brcs	.+4      	; 0x21bc <xStreamBufferSendFromISR+0x46>
    21b8:	2e 1b       	sub	r18, r30
    21ba:	3f 0b       	sbc	r19, r31
    21bc:	ce 01       	movw	r24, r28
    21be:	0e 94 7c 10 	call	0x20f8	; 0x20f8 <prvWriteMessageToBuffer>
    21c2:	6c 01       	movw	r12, r24
    21c4:	00 97       	sbiw	r24, 0x00	; 0
    21c6:	31 f1       	breq	.+76     	; 0x2214 <xStreamBufferSendFromISR+0x9e>
    21c8:	4c 81       	ldd	r20, Y+4	; 0x04
    21ca:	5d 81       	ldd	r21, Y+5	; 0x05
    21cc:	2a 81       	ldd	r18, Y+2	; 0x02
    21ce:	3b 81       	ldd	r19, Y+3	; 0x03
    21d0:	88 81       	ld	r24, Y
    21d2:	99 81       	ldd	r25, Y+1	; 0x01
    21d4:	24 0f       	add	r18, r20
    21d6:	35 1f       	adc	r19, r21
    21d8:	28 1b       	sub	r18, r24
    21da:	39 0b       	sbc	r19, r25
    21dc:	24 17       	cp	r18, r20
    21de:	35 07       	cpc	r19, r21
    21e0:	10 f0       	brcs	.+4      	; 0x21e6 <xStreamBufferSendFromISR+0x70>
    21e2:	24 1b       	sub	r18, r20
    21e4:	35 0b       	sbc	r19, r21
    21e6:	8e 81       	ldd	r24, Y+6	; 0x06
    21e8:	9f 81       	ldd	r25, Y+7	; 0x07
    21ea:	28 17       	cp	r18, r24
    21ec:	39 07       	cpc	r19, r25
    21ee:	90 f0       	brcs	.+36     	; 0x2214 <xStreamBufferSendFromISR+0x9e>
    21f0:	88 85       	ldd	r24, Y+8	; 0x08
    21f2:	99 85       	ldd	r25, Y+9	; 0x09
    21f4:	89 2b       	or	r24, r25
    21f6:	71 f0       	breq	.+28     	; 0x2214 <xStreamBufferSendFromISR+0x9e>
    21f8:	88 85       	ldd	r24, Y+8	; 0x08
    21fa:	99 85       	ldd	r25, Y+9	; 0x09
    21fc:	40 e0       	ldi	r20, 0x00	; 0
    21fe:	50 e0       	ldi	r21, 0x00	; 0
    2200:	60 e0       	ldi	r22, 0x00	; 0
    2202:	70 e0       	ldi	r23, 0x00	; 0
    2204:	20 e0       	ldi	r18, 0x00	; 0
    2206:	30 e0       	ldi	r19, 0x00	; 0
    2208:	00 e0       	ldi	r16, 0x00	; 0
    220a:	10 e0       	ldi	r17, 0x00	; 0
    220c:	0e 94 0a 14 	call	0x2814	; 0x2814 <xTaskGenericNotifyFromISR>
    2210:	19 86       	std	Y+9, r1	; 0x09
    2212:	18 86       	std	Y+8, r1	; 0x08
    2214:	c6 01       	movw	r24, r12
    2216:	df 91       	pop	r29
    2218:	cf 91       	pop	r28
    221a:	1f 91       	pop	r17
    221c:	0f 91       	pop	r16
    221e:	ff 90       	pop	r15
    2220:	ef 90       	pop	r14
    2222:	df 90       	pop	r13
    2224:	cf 90       	pop	r12
    2226:	08 95       	ret

00002228 <xStreamBufferReceive>:
    2228:	8f 92       	push	r8
    222a:	9f 92       	push	r9
    222c:	af 92       	push	r10
    222e:	bf 92       	push	r11
    2230:	cf 92       	push	r12
    2232:	df 92       	push	r13
    2234:	ef 92       	push	r14
    2236:	ff 92       	push	r15
    2238:	0f 93       	push	r16
    223a:	1f 93       	push	r17
    223c:	cf 93       	push	r28
    223e:	df 93       	push	r29
    2240:	5b 01       	movw	r10, r22
    2242:	4a 01       	movw	r8, r20
    2244:	79 01       	movw	r14, r18
    2246:	ec 01       	movw	r28, r24
    2248:	8e 85       	ldd	r24, Y+14	; 0x0e
    224a:	80 fd       	sbrc	r24, 0
    224c:	03 c0       	rjmp	.+6      	; 0x2254 <xStreamBufferReceive+0x2c>
    224e:	cc 24       	eor	r12, r12
    2250:	dd 24       	eor	r13, r13
    2252:	03 c0       	rjmp	.+6      	; 0x225a <xStreamBufferReceive+0x32>
    2254:	82 e0       	ldi	r24, 0x02	; 2
    2256:	c8 2e       	mov	r12, r24
    2258:	d1 2c       	mov	r13, r1
    225a:	2c 81       	ldd	r18, Y+4	; 0x04
    225c:	3d 81       	ldd	r19, Y+5	; 0x05
    225e:	e1 14       	cp	r14, r1
    2260:	f1 04       	cpc	r15, r1
    2262:	81 f1       	breq	.+96     	; 0x22c4 <xStreamBufferReceive+0x9c>
    2264:	0f b6       	in	r0, 0x3f	; 63
    2266:	f8 94       	cli
    2268:	0f 92       	push	r0
    226a:	0a 81       	ldd	r16, Y+2	; 0x02
    226c:	1b 81       	ldd	r17, Y+3	; 0x03
    226e:	88 81       	ld	r24, Y
    2270:	99 81       	ldd	r25, Y+1	; 0x01
    2272:	02 0f       	add	r16, r18
    2274:	13 1f       	adc	r17, r19
    2276:	08 1b       	sub	r16, r24
    2278:	19 0b       	sbc	r17, r25
    227a:	02 17       	cp	r16, r18
    227c:	13 07       	cpc	r17, r19
    227e:	10 f0       	brcs	.+4      	; 0x2284 <xStreamBufferReceive+0x5c>
    2280:	02 1b       	sub	r16, r18
    2282:	13 0b       	sbc	r17, r19
    2284:	c0 16       	cp	r12, r16
    2286:	d1 06       	cpc	r13, r17
    2288:	40 f0       	brcs	.+16     	; 0x229a <xStreamBufferReceive+0x72>
    228a:	80 e0       	ldi	r24, 0x00	; 0
    228c:	90 e0       	ldi	r25, 0x00	; 0
    228e:	0e 94 a4 13 	call	0x2748	; 0x2748 <xTaskNotifyStateClear>
    2292:	82 e0       	ldi	r24, 0x02	; 2
    2294:	90 e0       	ldi	r25, 0x00	; 0
    2296:	99 87       	std	Y+9, r25	; 0x09
    2298:	88 87       	std	Y+8, r24	; 0x08
    229a:	0f 90       	pop	r0
    229c:	0f be       	out	0x3f, r0	; 63
    229e:	c0 16       	cp	r12, r16
    22a0:	d1 06       	cpc	r13, r17
    22a2:	18 f1       	brcs	.+70     	; 0x22ea <xStreamBufferReceive+0xc2>
    22a4:	60 e0       	ldi	r22, 0x00	; 0
    22a6:	70 e0       	ldi	r23, 0x00	; 0
    22a8:	80 e0       	ldi	r24, 0x00	; 0
    22aa:	90 e0       	ldi	r25, 0x00	; 0
    22ac:	2f ef       	ldi	r18, 0xFF	; 255
    22ae:	3f ef       	ldi	r19, 0xFF	; 255
    22b0:	4f ef       	ldi	r20, 0xFF	; 255
    22b2:	5f ef       	ldi	r21, 0xFF	; 255
    22b4:	00 e0       	ldi	r16, 0x00	; 0
    22b6:	10 e0       	ldi	r17, 0x00	; 0
    22b8:	0e 94 fd 16 	call	0x2dfa	; 0x2dfa <xTaskNotifyWait>
    22bc:	19 86       	std	Y+9, r1	; 0x09
    22be:	18 86       	std	Y+8, r1	; 0x08
    22c0:	2c 81       	ldd	r18, Y+4	; 0x04
    22c2:	3d 81       	ldd	r19, Y+5	; 0x05
    22c4:	0a 81       	ldd	r16, Y+2	; 0x02
    22c6:	1b 81       	ldd	r17, Y+3	; 0x03
    22c8:	88 81       	ld	r24, Y
    22ca:	99 81       	ldd	r25, Y+1	; 0x01
    22cc:	02 0f       	add	r16, r18
    22ce:	13 1f       	adc	r17, r19
    22d0:	08 1b       	sub	r16, r24
    22d2:	19 0b       	sbc	r17, r25
    22d4:	02 17       	cp	r16, r18
    22d6:	13 07       	cpc	r17, r19
    22d8:	10 f0       	brcs	.+4      	; 0x22de <xStreamBufferReceive+0xb6>
    22da:	02 1b       	sub	r16, r18
    22dc:	13 0b       	sbc	r17, r19
    22de:	c0 16       	cp	r12, r16
    22e0:	d1 06       	cpc	r13, r17
    22e2:	18 f0       	brcs	.+6      	; 0x22ea <xStreamBufferReceive+0xc2>
    22e4:	ee 24       	eor	r14, r14
    22e6:	ff 24       	eor	r15, r15
    22e8:	20 c0       	rjmp	.+64     	; 0x232a <xStreamBufferReceive+0x102>
    22ea:	ce 01       	movw	r24, r28
    22ec:	b5 01       	movw	r22, r10
    22ee:	a4 01       	movw	r20, r8
    22f0:	98 01       	movw	r18, r16
    22f2:	86 01       	movw	r16, r12
    22f4:	0e 94 95 0f 	call	0x1f2a	; 0x1f2a <prvReadMessageFromBuffer>
    22f8:	7c 01       	movw	r14, r24
    22fa:	00 97       	sbiw	r24, 0x00	; 0
    22fc:	b1 f0       	breq	.+44     	; 0x232a <xStreamBufferReceive+0x102>
    22fe:	0e 94 dc 12 	call	0x25b8	; 0x25b8 <vTaskSuspendAll>
    2302:	8a 85       	ldd	r24, Y+10	; 0x0a
    2304:	9b 85       	ldd	r25, Y+11	; 0x0b
    2306:	89 2b       	or	r24, r25
    2308:	71 f0       	breq	.+28     	; 0x2326 <xStreamBufferReceive+0xfe>
    230a:	8a 85       	ldd	r24, Y+10	; 0x0a
    230c:	9b 85       	ldd	r25, Y+11	; 0x0b
    230e:	40 e0       	ldi	r20, 0x00	; 0
    2310:	50 e0       	ldi	r21, 0x00	; 0
    2312:	60 e0       	ldi	r22, 0x00	; 0
    2314:	70 e0       	ldi	r23, 0x00	; 0
    2316:	20 e0       	ldi	r18, 0x00	; 0
    2318:	30 e0       	ldi	r19, 0x00	; 0
    231a:	00 e0       	ldi	r16, 0x00	; 0
    231c:	10 e0       	ldi	r17, 0x00	; 0
    231e:	0e 94 c1 15 	call	0x2b82	; 0x2b82 <xTaskGenericNotify>
    2322:	1b 86       	std	Y+11, r1	; 0x0b
    2324:	1a 86       	std	Y+10, r1	; 0x0a
    2326:	0e 94 30 16 	call	0x2c60	; 0x2c60 <xTaskResumeAll>
    232a:	c7 01       	movw	r24, r14
    232c:	df 91       	pop	r29
    232e:	cf 91       	pop	r28
    2330:	1f 91       	pop	r17
    2332:	0f 91       	pop	r16
    2334:	ff 90       	pop	r15
    2336:	ef 90       	pop	r14
    2338:	df 90       	pop	r13
    233a:	cf 90       	pop	r12
    233c:	bf 90       	pop	r11
    233e:	af 90       	pop	r10
    2340:	9f 90       	pop	r9
    2342:	8f 90       	pop	r8
    2344:	08 95       	ret

00002346 <xStreamBufferSend>:
    2346:	2f 92       	push	r2
    2348:	3f 92       	push	r3
    234a:	4f 92       	push	r4
    234c:	5f 92       	push	r5
    234e:	6f 92       	push	r6
    2350:	7f 92       	push	r7
    2352:	8f 92       	push	r8
    2354:	9f 92       	push	r9
    2356:	af 92       	push	r10
    2358:	bf 92       	push	r11
    235a:	cf 92       	push	r12
    235c:	df 92       	push	r13
    235e:	ef 92       	push	r14
    2360:	ff 92       	push	r15
    2362:	0f 93       	push	r16
    2364:	1f 93       	push	r17
    2366:	df 93       	push	r29
    2368:	cf 93       	push	r28
    236a:	00 d0       	rcall	.+0      	; 0x236c <xStreamBufferSend+0x26>
    236c:	00 d0       	rcall	.+0      	; 0x236e <xStreamBufferSend+0x28>
    236e:	0f 92       	push	r0
    2370:	cd b7       	in	r28, 0x3d	; 61
    2372:	de b7       	in	r29, 0x3e	; 62
    2374:	1b 01       	movw	r2, r22
    2376:	3a 01       	movw	r6, r20
    2378:	3d 83       	std	Y+5, r19	; 0x05
    237a:	2c 83       	std	Y+4, r18	; 0x04
    237c:	5c 01       	movw	r10, r24
    237e:	fc 01       	movw	r30, r24
    2380:	86 85       	ldd	r24, Z+14	; 0x0e
    2382:	80 fd       	sbrc	r24, 0
    2384:	02 c0       	rjmp	.+4      	; 0x238a <xStreamBufferSend+0x44>
    2386:	4a 01       	movw	r8, r20
    2388:	05 c0       	rjmp	.+10     	; 0x2394 <xStreamBufferSend+0x4e>
    238a:	92 e0       	ldi	r25, 0x02	; 2
    238c:	89 2e       	mov	r8, r25
    238e:	91 2c       	mov	r9, r1
    2390:	84 0e       	add	r8, r20
    2392:	95 1e       	adc	r9, r21
    2394:	8c 81       	ldd	r24, Y+4	; 0x04
    2396:	9d 81       	ldd	r25, Y+5	; 0x05
    2398:	89 2b       	or	r24, r25
    239a:	09 f4       	brne	.+2      	; 0x239e <xStreamBufferSend+0x58>
    239c:	4b c0       	rjmp	.+150    	; 0x2434 <xStreamBufferSend+0xee>
    239e:	8e 01       	movw	r16, r28
    23a0:	0f 5f       	subi	r16, 0xFF	; 255
    23a2:	1f 4f       	sbci	r17, 0xFF	; 255
    23a4:	c8 01       	movw	r24, r16
    23a6:	0e 94 3b 13 	call	0x2676	; 0x2676 <vTaskSetTimeOutState>
    23aa:	28 01       	movw	r4, r16
    23ac:	0f b6       	in	r0, 0x3f	; 63
    23ae:	f8 94       	cli
    23b0:	0f 92       	push	r0
    23b2:	f5 01       	movw	r30, r10
    23b4:	24 81       	ldd	r18, Z+4	; 0x04
    23b6:	35 81       	ldd	r19, Z+5	; 0x05
    23b8:	c0 80       	ld	r12, Z
    23ba:	d1 80       	ldd	r13, Z+1	; 0x01
    23bc:	82 81       	ldd	r24, Z+2	; 0x02
    23be:	93 81       	ldd	r25, Z+3	; 0x03
    23c0:	c2 0e       	add	r12, r18
    23c2:	d3 1e       	adc	r13, r19
    23c4:	08 94       	sec
    23c6:	c1 08       	sbc	r12, r1
    23c8:	d1 08       	sbc	r13, r1
    23ca:	c8 1a       	sub	r12, r24
    23cc:	d9 0a       	sbc	r13, r25
    23ce:	c2 16       	cp	r12, r18
    23d0:	d3 06       	cpc	r13, r19
    23d2:	10 f0       	brcs	.+4      	; 0x23d8 <xStreamBufferSend+0x92>
    23d4:	c2 1a       	sub	r12, r18
    23d6:	d3 0a       	sbc	r13, r19
    23d8:	c8 14       	cp	r12, r8
    23da:	d9 04       	cpc	r13, r9
    23dc:	30 f5       	brcc	.+76     	; 0x242a <xStreamBufferSend+0xe4>
    23de:	80 e0       	ldi	r24, 0x00	; 0
    23e0:	90 e0       	ldi	r25, 0x00	; 0
    23e2:	0e 94 a4 13 	call	0x2748	; 0x2748 <xTaskNotifyStateClear>
    23e6:	82 e0       	ldi	r24, 0x02	; 2
    23e8:	90 e0       	ldi	r25, 0x00	; 0
    23ea:	f5 01       	movw	r30, r10
    23ec:	93 87       	std	Z+11, r25	; 0x0b
    23ee:	82 87       	std	Z+10, r24	; 0x0a
    23f0:	0f 90       	pop	r0
    23f2:	0f be       	out	0x3f, r0	; 63
    23f4:	ec 80       	ldd	r14, Y+4	; 0x04
    23f6:	fd 80       	ldd	r15, Y+5	; 0x05
    23f8:	60 e0       	ldi	r22, 0x00	; 0
    23fa:	70 e0       	ldi	r23, 0x00	; 0
    23fc:	80 e0       	ldi	r24, 0x00	; 0
    23fe:	90 e0       	ldi	r25, 0x00	; 0
    2400:	2f ef       	ldi	r18, 0xFF	; 255
    2402:	3f ef       	ldi	r19, 0xFF	; 255
    2404:	4f ef       	ldi	r20, 0xFF	; 255
    2406:	5f ef       	ldi	r21, 0xFF	; 255
    2408:	00 e0       	ldi	r16, 0x00	; 0
    240a:	10 e0       	ldi	r17, 0x00	; 0
    240c:	0e 94 fd 16 	call	0x2dfa	; 0x2dfa <xTaskNotifyWait>
    2410:	f5 01       	movw	r30, r10
    2412:	13 86       	std	Z+11, r1	; 0x0b
    2414:	12 86       	std	Z+10, r1	; 0x0a
    2416:	c2 01       	movw	r24, r4
    2418:	be 01       	movw	r22, r28
    241a:	6c 5f       	subi	r22, 0xFC	; 252
    241c:	7f 4f       	sbci	r23, 0xFF	; 255
    241e:	0e 94 56 13 	call	0x26ac	; 0x26ac <xTaskCheckForTimeOut>
    2422:	88 23       	and	r24, r24
    2424:	09 f4       	brne	.+2      	; 0x2428 <xStreamBufferSend+0xe2>
    2426:	c2 cf       	rjmp	.-124    	; 0x23ac <xStreamBufferSend+0x66>
    2428:	02 c0       	rjmp	.+4      	; 0x242e <xStreamBufferSend+0xe8>
    242a:	0f 90       	pop	r0
    242c:	0f be       	out	0x3f, r0	; 63
    242e:	96 01       	movw	r18, r12
    2430:	cd 28       	or	r12, r13
    2432:	91 f4       	brne	.+36     	; 0x2458 <xStreamBufferSend+0x112>
    2434:	f5 01       	movw	r30, r10
    2436:	44 81       	ldd	r20, Z+4	; 0x04
    2438:	55 81       	ldd	r21, Z+5	; 0x05
    243a:	20 81       	ld	r18, Z
    243c:	31 81       	ldd	r19, Z+1	; 0x01
    243e:	82 81       	ldd	r24, Z+2	; 0x02
    2440:	93 81       	ldd	r25, Z+3	; 0x03
    2442:	24 0f       	add	r18, r20
    2444:	35 1f       	adc	r19, r21
    2446:	21 50       	subi	r18, 0x01	; 1
    2448:	30 40       	sbci	r19, 0x00	; 0
    244a:	28 1b       	sub	r18, r24
    244c:	39 0b       	sbc	r19, r25
    244e:	24 17       	cp	r18, r20
    2450:	35 07       	cpc	r19, r21
    2452:	10 f0       	brcs	.+4      	; 0x2458 <xStreamBufferSend+0x112>
    2454:	24 1b       	sub	r18, r20
    2456:	35 0b       	sbc	r19, r21
    2458:	c5 01       	movw	r24, r10
    245a:	b1 01       	movw	r22, r2
    245c:	a3 01       	movw	r20, r6
    245e:	84 01       	movw	r16, r8
    2460:	0e 94 7c 10 	call	0x20f8	; 0x20f8 <prvWriteMessageToBuffer>
    2464:	7c 01       	movw	r14, r24
    2466:	00 97       	sbiw	r24, 0x00	; 0
    2468:	71 f1       	breq	.+92     	; 0x24c6 <xStreamBufferSend+0x180>
    246a:	f5 01       	movw	r30, r10
    246c:	44 81       	ldd	r20, Z+4	; 0x04
    246e:	55 81       	ldd	r21, Z+5	; 0x05
    2470:	22 81       	ldd	r18, Z+2	; 0x02
    2472:	33 81       	ldd	r19, Z+3	; 0x03
    2474:	80 81       	ld	r24, Z
    2476:	91 81       	ldd	r25, Z+1	; 0x01
    2478:	24 0f       	add	r18, r20
    247a:	35 1f       	adc	r19, r21
    247c:	28 1b       	sub	r18, r24
    247e:	39 0b       	sbc	r19, r25
    2480:	24 17       	cp	r18, r20
    2482:	35 07       	cpc	r19, r21
    2484:	10 f0       	brcs	.+4      	; 0x248a <xStreamBufferSend+0x144>
    2486:	24 1b       	sub	r18, r20
    2488:	35 0b       	sbc	r19, r21
    248a:	f5 01       	movw	r30, r10
    248c:	86 81       	ldd	r24, Z+6	; 0x06
    248e:	97 81       	ldd	r25, Z+7	; 0x07
    2490:	28 17       	cp	r18, r24
    2492:	39 07       	cpc	r19, r25
    2494:	c0 f0       	brcs	.+48     	; 0x24c6 <xStreamBufferSend+0x180>
    2496:	0e 94 dc 12 	call	0x25b8	; 0x25b8 <vTaskSuspendAll>
    249a:	f5 01       	movw	r30, r10
    249c:	80 85       	ldd	r24, Z+8	; 0x08
    249e:	91 85       	ldd	r25, Z+9	; 0x09
    24a0:	89 2b       	or	r24, r25
    24a2:	79 f0       	breq	.+30     	; 0x24c2 <xStreamBufferSend+0x17c>
    24a4:	80 85       	ldd	r24, Z+8	; 0x08
    24a6:	91 85       	ldd	r25, Z+9	; 0x09
    24a8:	40 e0       	ldi	r20, 0x00	; 0
    24aa:	50 e0       	ldi	r21, 0x00	; 0
    24ac:	60 e0       	ldi	r22, 0x00	; 0
    24ae:	70 e0       	ldi	r23, 0x00	; 0
    24b0:	20 e0       	ldi	r18, 0x00	; 0
    24b2:	30 e0       	ldi	r19, 0x00	; 0
    24b4:	00 e0       	ldi	r16, 0x00	; 0
    24b6:	10 e0       	ldi	r17, 0x00	; 0
    24b8:	0e 94 c1 15 	call	0x2b82	; 0x2b82 <xTaskGenericNotify>
    24bc:	f5 01       	movw	r30, r10
    24be:	11 86       	std	Z+9, r1	; 0x09
    24c0:	10 86       	std	Z+8, r1	; 0x08
    24c2:	0e 94 30 16 	call	0x2c60	; 0x2c60 <xTaskResumeAll>
    24c6:	c7 01       	movw	r24, r14
    24c8:	0f 90       	pop	r0
    24ca:	0f 90       	pop	r0
    24cc:	0f 90       	pop	r0
    24ce:	0f 90       	pop	r0
    24d0:	0f 90       	pop	r0
    24d2:	cf 91       	pop	r28
    24d4:	df 91       	pop	r29
    24d6:	1f 91       	pop	r17
    24d8:	0f 91       	pop	r16
    24da:	ff 90       	pop	r15
    24dc:	ef 90       	pop	r14
    24de:	df 90       	pop	r13
    24e0:	cf 90       	pop	r12
    24e2:	bf 90       	pop	r11
    24e4:	af 90       	pop	r10
    24e6:	9f 90       	pop	r9
    24e8:	8f 90       	pop	r8
    24ea:	7f 90       	pop	r7
    24ec:	6f 90       	pop	r6
    24ee:	5f 90       	pop	r5
    24f0:	4f 90       	pop	r4
    24f2:	3f 90       	pop	r3
    24f4:	2f 90       	pop	r2
    24f6:	08 95       	ret

000024f8 <xStreamBufferReset>:
    24f8:	fc 01       	movw	r30, r24
    24fa:	80 85       	ldd	r24, Z+8	; 0x08
    24fc:	91 85       	ldd	r25, Z+9	; 0x09
    24fe:	89 2b       	or	r24, r25
    2500:	e9 f4       	brne	.+58     	; 0x253c <xStreamBufferReset+0x44>
    2502:	82 85       	ldd	r24, Z+10	; 0x0a
    2504:	93 85       	ldd	r25, Z+11	; 0x0b
    2506:	89 2b       	or	r24, r25
    2508:	c9 f4       	brne	.+50     	; 0x253c <xStreamBufferReset+0x44>
    250a:	96 85       	ldd	r25, Z+14	; 0x0e
    250c:	24 85       	ldd	r18, Z+12	; 0x0c
    250e:	35 85       	ldd	r19, Z+13	; 0x0d
    2510:	44 81       	ldd	r20, Z+4	; 0x04
    2512:	55 81       	ldd	r21, Z+5	; 0x05
    2514:	66 81       	ldd	r22, Z+6	; 0x06
    2516:	77 81       	ldd	r23, Z+7	; 0x07
    2518:	8f e0       	ldi	r24, 0x0F	; 15
    251a:	df 01       	movw	r26, r30
    251c:	1d 92       	st	X+, r1
    251e:	8a 95       	dec	r24
    2520:	e9 f7       	brne	.-6      	; 0x251c <xStreamBufferReset+0x24>
    2522:	35 87       	std	Z+13, r19	; 0x0d
    2524:	24 87       	std	Z+12, r18	; 0x0c
    2526:	55 83       	std	Z+5, r21	; 0x05
    2528:	44 83       	std	Z+4, r20	; 0x04
    252a:	77 83       	std	Z+7, r23	; 0x07
    252c:	66 83       	std	Z+6, r22	; 0x06
    252e:	90 ff       	sbrs	r25, 0
    2530:	03 c0       	rjmp	.+6      	; 0x2538 <xStreamBufferReset+0x40>
    2532:	86 85       	ldd	r24, Z+14	; 0x0e
    2534:	81 60       	ori	r24, 0x01	; 1
    2536:	86 87       	std	Z+14, r24	; 0x0e
    2538:	81 e0       	ldi	r24, 0x01	; 1
    253a:	08 95       	ret
    253c:	80 e0       	ldi	r24, 0x00	; 0
    253e:	08 95       	ret

00002540 <vStreamBufferDelete>:
    2540:	fc 01       	movw	r30, r24
    2542:	86 85       	ldd	r24, Z+14	; 0x0e
    2544:	81 fd       	sbrc	r24, 1
    2546:	04 c0       	rjmp	.+8      	; 0x2550 <vStreamBufferDelete+0x10>
    2548:	cf 01       	movw	r24, r30
    254a:	0e 94 07 09 	call	0x120e	; 0x120e <vPortFree>
    254e:	08 95       	ret
    2550:	8f e0       	ldi	r24, 0x0F	; 15
    2552:	df 01       	movw	r26, r30
    2554:	1d 92       	st	X+, r1
    2556:	8a 95       	dec	r24
    2558:	e9 f7       	brne	.-6      	; 0x2554 <vStreamBufferDelete+0x14>
    255a:	08 95       	ret

0000255c <xStreamBufferGenericCreate>:
    255c:	ff 92       	push	r15
    255e:	0f 93       	push	r16
    2560:	1f 93       	push	r17
    2562:	cf 93       	push	r28
    2564:	df 93       	push	r29
    2566:	eb 01       	movw	r28, r22
    2568:	f4 2e       	mov	r15, r20
    256a:	61 15       	cp	r22, r1
    256c:	71 05       	cpc	r23, r1
    256e:	11 f4       	brne	.+4      	; 0x2574 <xStreamBufferGenericCreate+0x18>
    2570:	c1 e0       	ldi	r28, 0x01	; 1
    2572:	d0 e0       	ldi	r29, 0x00	; 0
    2574:	8c 01       	movw	r16, r24
    2576:	0f 5f       	subi	r16, 0xFF	; 255
    2578:	1f 4f       	sbci	r17, 0xFF	; 255
    257a:	40 96       	adiw	r24, 0x10	; 16
    257c:	0e 94 17 09 	call	0x122e	; 0x122e <pvPortMalloc>
    2580:	fc 01       	movw	r30, r24
    2582:	00 97       	sbiw	r24, 0x00	; 0
    2584:	91 f0       	breq	.+36     	; 0x25aa <xStreamBufferGenericCreate+0x4e>
    2586:	8f e0       	ldi	r24, 0x0F	; 15
    2588:	df 01       	movw	r26, r30
    258a:	1d 92       	st	X+, r1
    258c:	8a 95       	dec	r24
    258e:	e9 f7       	brne	.-6      	; 0x258a <xStreamBufferGenericCreate+0x2e>
    2590:	cf 01       	movw	r24, r30
    2592:	0f 96       	adiw	r24, 0x0f	; 15
    2594:	95 87       	std	Z+13, r25	; 0x0d
    2596:	84 87       	std	Z+12, r24	; 0x0c
    2598:	15 83       	std	Z+5, r17	; 0x05
    259a:	04 83       	std	Z+4, r16	; 0x04
    259c:	d7 83       	std	Z+7, r29	; 0x07
    259e:	c6 83       	std	Z+6, r28	; 0x06
    25a0:	ff 20       	and	r15, r15
    25a2:	19 f0       	breq	.+6      	; 0x25aa <xStreamBufferGenericCreate+0x4e>
    25a4:	86 85       	ldd	r24, Z+14	; 0x0e
    25a6:	81 60       	ori	r24, 0x01	; 1
    25a8:	86 87       	std	Z+14, r24	; 0x0e
    25aa:	cf 01       	movw	r24, r30
    25ac:	df 91       	pop	r29
    25ae:	cf 91       	pop	r28
    25b0:	1f 91       	pop	r17
    25b2:	0f 91       	pop	r16
    25b4:	ff 90       	pop	r15
    25b6:	08 95       	ret

000025b8 <vTaskSuspendAll>:
    25b8:	80 91 aa 06 	lds	r24, 0x06AA
    25bc:	8f 5f       	subi	r24, 0xFF	; 255
    25be:	80 93 aa 06 	sts	0x06AA, r24
    25c2:	08 95       	ret

000025c4 <xTaskGetTickCount>:
    25c4:	0f b6       	in	r0, 0x3f	; 63
    25c6:	f8 94       	cli
    25c8:	0f 92       	push	r0
    25ca:	20 91 ad 06 	lds	r18, 0x06AD
    25ce:	30 91 ae 06 	lds	r19, 0x06AE
    25d2:	0f 90       	pop	r0
    25d4:	0f be       	out	0x3f, r0	; 63
    25d6:	c9 01       	movw	r24, r18
    25d8:	08 95       	ret

000025da <xTaskGetTickCountFromISR>:
    25da:	20 91 ad 06 	lds	r18, 0x06AD
    25de:	30 91 ae 06 	lds	r19, 0x06AE
    25e2:	c9 01       	movw	r24, r18
    25e4:	08 95       	ret

000025e6 <uxTaskGetNumberOfTasks>:
    25e6:	80 91 b3 06 	lds	r24, 0x06B3
    25ea:	08 95       	ret

000025ec <pcTaskGetName>:
    25ec:	00 97       	sbiw	r24, 0x00	; 0
    25ee:	21 f4       	brne	.+8      	; 0x25f8 <pcTaskGetName+0xc>
    25f0:	80 91 a8 06 	lds	r24, 0x06A8
    25f4:	90 91 a9 06 	lds	r25, 0x06A9
    25f8:	9c 01       	movw	r18, r24
    25fa:	27 5e       	subi	r18, 0xE7	; 231
    25fc:	3f 4f       	sbci	r19, 0xFF	; 255
    25fe:	c9 01       	movw	r24, r18
    2600:	08 95       	ret

00002602 <vTaskSwitchContext>:
    2602:	80 91 aa 06 	lds	r24, 0x06AA
    2606:	88 23       	and	r24, r24
    2608:	21 f0       	breq	.+8      	; 0x2612 <vTaskSwitchContext+0x10>
    260a:	81 e0       	ldi	r24, 0x01	; 1
    260c:	80 93 ac 06 	sts	0x06AC, r24
    2610:	08 95       	ret
    2612:	10 92 ac 06 	sts	0x06AC, r1
    2616:	20 91 ab 06 	lds	r18, 0x06AB
    261a:	99 e0       	ldi	r25, 0x09	; 9
    261c:	01 c0       	rjmp	.+2      	; 0x2620 <vTaskSwitchContext+0x1e>
    261e:	21 50       	subi	r18, 0x01	; 1
    2620:	29 9f       	mul	r18, r25
    2622:	d0 01       	movw	r26, r0
    2624:	11 24       	eor	r1, r1
    2626:	a7 54       	subi	r26, 0x47	; 71
    2628:	b9 4f       	sbci	r27, 0xF9	; 249
    262a:	8c 91       	ld	r24, X
    262c:	88 23       	and	r24, r24
    262e:	b9 f3       	breq	.-18     	; 0x261e <vTaskSwitchContext+0x1c>
    2630:	11 96       	adiw	r26, 0x01	; 1
    2632:	ed 91       	ld	r30, X+
    2634:	fc 91       	ld	r31, X
    2636:	12 97       	sbiw	r26, 0x02	; 2
    2638:	02 80       	ldd	r0, Z+2	; 0x02
    263a:	f3 81       	ldd	r31, Z+3	; 0x03
    263c:	e0 2d       	mov	r30, r0
    263e:	12 96       	adiw	r26, 0x02	; 2
    2640:	fc 93       	st	X, r31
    2642:	ee 93       	st	-X, r30
    2644:	11 97       	sbiw	r26, 0x01	; 1
    2646:	cd 01       	movw	r24, r26
    2648:	03 96       	adiw	r24, 0x03	; 3
    264a:	e8 17       	cp	r30, r24
    264c:	f9 07       	cpc	r31, r25
    264e:	31 f4       	brne	.+12     	; 0x265c <vTaskSwitchContext+0x5a>
    2650:	82 81       	ldd	r24, Z+2	; 0x02
    2652:	93 81       	ldd	r25, Z+3	; 0x03
    2654:	12 96       	adiw	r26, 0x02	; 2
    2656:	9c 93       	st	X, r25
    2658:	8e 93       	st	-X, r24
    265a:	11 97       	sbiw	r26, 0x01	; 1
    265c:	11 96       	adiw	r26, 0x01	; 1
    265e:	ed 91       	ld	r30, X+
    2660:	fc 91       	ld	r31, X
    2662:	12 97       	sbiw	r26, 0x02	; 2
    2664:	86 81       	ldd	r24, Z+6	; 0x06
    2666:	97 81       	ldd	r25, Z+7	; 0x07
    2668:	90 93 a9 06 	sts	0x06A9, r25
    266c:	80 93 a8 06 	sts	0x06A8, r24
    2670:	20 93 ab 06 	sts	0x06AB, r18
    2674:	08 95       	ret

00002676 <vTaskSetTimeOutState>:
    2676:	fc 01       	movw	r30, r24
    2678:	0f b6       	in	r0, 0x3f	; 63
    267a:	f8 94       	cli
    267c:	0f 92       	push	r0
    267e:	80 91 b1 06 	lds	r24, 0x06B1
    2682:	80 83       	st	Z, r24
    2684:	80 91 ad 06 	lds	r24, 0x06AD
    2688:	90 91 ae 06 	lds	r25, 0x06AE
    268c:	92 83       	std	Z+2, r25	; 0x02
    268e:	81 83       	std	Z+1, r24	; 0x01
    2690:	0f 90       	pop	r0
    2692:	0f be       	out	0x3f, r0	; 63
    2694:	08 95       	ret

00002696 <vTaskInternalSetTimeOutState>:
    2696:	fc 01       	movw	r30, r24
    2698:	80 91 b1 06 	lds	r24, 0x06B1
    269c:	80 83       	st	Z, r24
    269e:	80 91 ad 06 	lds	r24, 0x06AD
    26a2:	90 91 ae 06 	lds	r25, 0x06AE
    26a6:	92 83       	std	Z+2, r25	; 0x02
    26a8:	81 83       	std	Z+1, r24	; 0x01
    26aa:	08 95       	ret

000026ac <xTaskCheckForTimeOut>:
    26ac:	fc 01       	movw	r30, r24
    26ae:	db 01       	movw	r26, r22
    26b0:	0f b6       	in	r0, 0x3f	; 63
    26b2:	f8 94       	cli
    26b4:	0f 92       	push	r0
    26b6:	40 91 ad 06 	lds	r20, 0x06AD
    26ba:	50 91 ae 06 	lds	r21, 0x06AE
    26be:	21 81       	ldd	r18, Z+1	; 0x01
    26c0:	32 81       	ldd	r19, Z+2	; 0x02
    26c2:	90 91 b1 06 	lds	r25, 0x06B1
    26c6:	80 81       	ld	r24, Z
    26c8:	98 17       	cp	r25, r24
    26ca:	19 f0       	breq	.+6      	; 0x26d2 <xTaskCheckForTimeOut+0x26>
    26cc:	42 17       	cp	r20, r18
    26ce:	53 07       	cpc	r21, r19
    26d0:	d8 f4       	brcc	.+54     	; 0x2708 <xTaskCheckForTimeOut+0x5c>
    26d2:	ca 01       	movw	r24, r20
    26d4:	82 1b       	sub	r24, r18
    26d6:	93 0b       	sbc	r25, r19
    26d8:	9c 01       	movw	r18, r24
    26da:	8d 91       	ld	r24, X+
    26dc:	9c 91       	ld	r25, X
    26de:	11 97       	sbiw	r26, 0x01	; 1
    26e0:	28 17       	cp	r18, r24
    26e2:	39 07       	cpc	r19, r25
    26e4:	78 f4       	brcc	.+30     	; 0x2704 <xTaskCheckForTimeOut+0x58>
    26e6:	82 1b       	sub	r24, r18
    26e8:	93 0b       	sbc	r25, r19
    26ea:	8d 93       	st	X+, r24
    26ec:	9c 93       	st	X, r25
    26ee:	80 91 b1 06 	lds	r24, 0x06B1
    26f2:	80 83       	st	Z, r24
    26f4:	80 91 ad 06 	lds	r24, 0x06AD
    26f8:	90 91 ae 06 	lds	r25, 0x06AE
    26fc:	92 83       	std	Z+2, r25	; 0x02
    26fe:	81 83       	std	Z+1, r24	; 0x01
    2700:	80 e0       	ldi	r24, 0x00	; 0
    2702:	03 c0       	rjmp	.+6      	; 0x270a <xTaskCheckForTimeOut+0x5e>
    2704:	1d 92       	st	X+, r1
    2706:	1c 92       	st	X, r1
    2708:	81 e0       	ldi	r24, 0x01	; 1
    270a:	0f 90       	pop	r0
    270c:	0f be       	out	0x3f, r0	; 63
    270e:	08 95       	ret

00002710 <vTaskMissedYield>:
    2710:	81 e0       	ldi	r24, 0x01	; 1
    2712:	80 93 ac 06 	sts	0x06AC, r24
    2716:	08 95       	ret

00002718 <uxTaskResetEventItemValue>:
    2718:	e0 91 a8 06 	lds	r30, 0x06A8
    271c:	f0 91 a9 06 	lds	r31, 0x06A9
    2720:	84 85       	ldd	r24, Z+12	; 0x0c
    2722:	95 85       	ldd	r25, Z+13	; 0x0d
    2724:	a0 91 a8 06 	lds	r26, 0x06A8
    2728:	b0 91 a9 06 	lds	r27, 0x06A9
    272c:	e0 91 a8 06 	lds	r30, 0x06A8
    2730:	f0 91 a9 06 	lds	r31, 0x06A9
    2734:	46 89       	ldd	r20, Z+22	; 0x16
    2736:	24 e0       	ldi	r18, 0x04	; 4
    2738:	30 e0       	ldi	r19, 0x00	; 0
    273a:	24 1b       	sub	r18, r20
    273c:	31 09       	sbc	r19, r1
    273e:	1d 96       	adiw	r26, 0x0d	; 13
    2740:	3c 93       	st	X, r19
    2742:	2e 93       	st	-X, r18
    2744:	1c 97       	sbiw	r26, 0x0c	; 12
    2746:	08 95       	ret

00002748 <xTaskNotifyStateClear>:
    2748:	00 97       	sbiw	r24, 0x00	; 0
    274a:	29 f4       	brne	.+10     	; 0x2756 <xTaskNotifyStateClear+0xe>
    274c:	e0 91 a8 06 	lds	r30, 0x06A8
    2750:	f0 91 a9 06 	lds	r31, 0x06A9
    2754:	01 c0       	rjmp	.+2      	; 0x2758 <xTaskNotifyStateClear+0x10>
    2756:	fc 01       	movw	r30, r24
    2758:	0f b6       	in	r0, 0x3f	; 63
    275a:	f8 94       	cli
    275c:	0f 92       	push	r0
    275e:	85 a1       	ldd	r24, Z+37	; 0x25
    2760:	82 30       	cpi	r24, 0x02	; 2
    2762:	11 f0       	breq	.+4      	; 0x2768 <xTaskNotifyStateClear+0x20>
    2764:	80 e0       	ldi	r24, 0x00	; 0
    2766:	02 c0       	rjmp	.+4      	; 0x276c <xTaskNotifyStateClear+0x24>
    2768:	15 a2       	std	Z+37, r1	; 0x25
    276a:	81 e0       	ldi	r24, 0x01	; 1
    276c:	0f 90       	pop	r0
    276e:	0f be       	out	0x3f, r0	; 63
    2770:	08 95       	ret

00002772 <vTaskNotifyGiveFromISR>:
    2772:	ef 92       	push	r14
    2774:	ff 92       	push	r15
    2776:	0f 93       	push	r16
    2778:	1f 93       	push	r17
    277a:	cf 93       	push	r28
    277c:	df 93       	push	r29
    277e:	7b 01       	movw	r14, r22
    2780:	ec 01       	movw	r28, r24
    2782:	2d a1       	ldd	r18, Y+37	; 0x25
    2784:	82 e0       	ldi	r24, 0x02	; 2
    2786:	8d a3       	std	Y+37, r24	; 0x25
    2788:	89 a1       	ldd	r24, Y+33	; 0x21
    278a:	9a a1       	ldd	r25, Y+34	; 0x22
    278c:	ab a1       	ldd	r26, Y+35	; 0x23
    278e:	bc a1       	ldd	r27, Y+36	; 0x24
    2790:	01 96       	adiw	r24, 0x01	; 1
    2792:	a1 1d       	adc	r26, r1
    2794:	b1 1d       	adc	r27, r1
    2796:	89 a3       	std	Y+33, r24	; 0x21
    2798:	9a a3       	std	Y+34, r25	; 0x22
    279a:	ab a3       	std	Y+35, r26	; 0x23
    279c:	bc a3       	std	Y+36, r27	; 0x24
    279e:	21 30       	cpi	r18, 0x01	; 1
    27a0:	91 f5       	brne	.+100    	; 0x2806 <vTaskNotifyGiveFromISR+0x94>
    27a2:	80 91 aa 06 	lds	r24, 0x06AA
    27a6:	88 23       	and	r24, r24
    27a8:	a9 f4       	brne	.+42     	; 0x27d4 <vTaskNotifyGiveFromISR+0x62>
    27aa:	8e 01       	movw	r16, r28
    27ac:	0e 5f       	subi	r16, 0xFE	; 254
    27ae:	1f 4f       	sbci	r17, 0xFF	; 255
    27b0:	c8 01       	movw	r24, r16
    27b2:	0e 94 08 04 	call	0x810	; 0x810 <uxListRemove>
    27b6:	9e 89       	ldd	r25, Y+22	; 0x16
    27b8:	80 91 ab 06 	lds	r24, 0x06AB
    27bc:	89 17       	cp	r24, r25
    27be:	10 f4       	brcc	.+4      	; 0x27c4 <vTaskNotifyGiveFromISR+0x52>
    27c0:	90 93 ab 06 	sts	0x06AB, r25
    27c4:	89 e0       	ldi	r24, 0x09	; 9
    27c6:	98 9f       	mul	r25, r24
    27c8:	c0 01       	movw	r24, r0
    27ca:	11 24       	eor	r1, r1
    27cc:	87 54       	subi	r24, 0x47	; 71
    27ce:	99 4f       	sbci	r25, 0xF9	; 249
    27d0:	b8 01       	movw	r22, r16
    27d2:	05 c0       	rjmp	.+10     	; 0x27de <vTaskNotifyGiveFromISR+0x6c>
    27d4:	be 01       	movw	r22, r28
    27d6:	64 5f       	subi	r22, 0xF4	; 244
    27d8:	7f 4f       	sbci	r23, 0xFF	; 255
    27da:	83 ef       	ldi	r24, 0xF3	; 243
    27dc:	96 e0       	ldi	r25, 0x06	; 6
    27de:	0e 94 b7 03 	call	0x76e	; 0x76e <vListInsertEnd>
    27e2:	e0 91 a8 06 	lds	r30, 0x06A8
    27e6:	f0 91 a9 06 	lds	r31, 0x06A9
    27ea:	9e 89       	ldd	r25, Y+22	; 0x16
    27ec:	86 89       	ldd	r24, Z+22	; 0x16
    27ee:	89 17       	cp	r24, r25
    27f0:	50 f4       	brcc	.+20     	; 0x2806 <vTaskNotifyGiveFromISR+0x94>
    27f2:	e1 14       	cp	r14, r1
    27f4:	f1 04       	cpc	r15, r1
    27f6:	21 f0       	breq	.+8      	; 0x2800 <vTaskNotifyGiveFromISR+0x8e>
    27f8:	81 e0       	ldi	r24, 0x01	; 1
    27fa:	f7 01       	movw	r30, r14
    27fc:	80 83       	st	Z, r24
    27fe:	03 c0       	rjmp	.+6      	; 0x2806 <vTaskNotifyGiveFromISR+0x94>
    2800:	81 e0       	ldi	r24, 0x01	; 1
    2802:	80 93 ac 06 	sts	0x06AC, r24
    2806:	df 91       	pop	r29
    2808:	cf 91       	pop	r28
    280a:	1f 91       	pop	r17
    280c:	0f 91       	pop	r16
    280e:	ff 90       	pop	r15
    2810:	ef 90       	pop	r14
    2812:	08 95       	ret

00002814 <xTaskGenericNotifyFromISR>:
    2814:	ef 92       	push	r14
    2816:	ff 92       	push	r15
    2818:	0f 93       	push	r16
    281a:	1f 93       	push	r17
    281c:	cf 93       	push	r28
    281e:	df 93       	push	r29
    2820:	f8 01       	movw	r30, r16
    2822:	ec 01       	movw	r28, r24
    2824:	01 15       	cp	r16, r1
    2826:	11 05       	cpc	r17, r1
    2828:	41 f0       	breq	.+16     	; 0x283a <xTaskGenericNotifyFromISR+0x26>
    282a:	89 a1       	ldd	r24, Y+33	; 0x21
    282c:	9a a1       	ldd	r25, Y+34	; 0x22
    282e:	ab a1       	ldd	r26, Y+35	; 0x23
    2830:	bc a1       	ldd	r27, Y+36	; 0x24
    2832:	80 83       	st	Z, r24
    2834:	91 83       	std	Z+1, r25	; 0x01
    2836:	a2 83       	std	Z+2, r26	; 0x02
    2838:	b3 83       	std	Z+3, r27	; 0x03
    283a:	ed a1       	ldd	r30, Y+37	; 0x25
    283c:	82 e0       	ldi	r24, 0x02	; 2
    283e:	8d a3       	std	Y+37, r24	; 0x25
    2840:	22 30       	cpi	r18, 0x02	; 2
    2842:	31 05       	cpc	r19, r1
    2844:	b9 f0       	breq	.+46     	; 0x2874 <xTaskGenericNotifyFromISR+0x60>
    2846:	23 30       	cpi	r18, 0x03	; 3
    2848:	31 05       	cpc	r19, r1
    284a:	20 f4       	brcc	.+8      	; 0x2854 <xTaskGenericNotifyFromISR+0x40>
    284c:	21 30       	cpi	r18, 0x01	; 1
    284e:	31 05       	cpc	r19, r1
    2850:	29 f5       	brne	.+74     	; 0x289c <xTaskGenericNotifyFromISR+0x88>
    2852:	07 c0       	rjmp	.+14     	; 0x2862 <xTaskGenericNotifyFromISR+0x4e>
    2854:	23 30       	cpi	r18, 0x03	; 3
    2856:	31 05       	cpc	r19, r1
    2858:	e9 f0       	breq	.+58     	; 0x2894 <xTaskGenericNotifyFromISR+0x80>
    285a:	24 30       	cpi	r18, 0x04	; 4
    285c:	31 05       	cpc	r19, r1
    285e:	f1 f4       	brne	.+60     	; 0x289c <xTaskGenericNotifyFromISR+0x88>
    2860:	15 c0       	rjmp	.+42     	; 0x288c <xTaskGenericNotifyFromISR+0x78>
    2862:	89 a1       	ldd	r24, Y+33	; 0x21
    2864:	9a a1       	ldd	r25, Y+34	; 0x22
    2866:	ab a1       	ldd	r26, Y+35	; 0x23
    2868:	bc a1       	ldd	r27, Y+36	; 0x24
    286a:	84 2b       	or	r24, r20
    286c:	95 2b       	or	r25, r21
    286e:	a6 2b       	or	r26, r22
    2870:	b7 2b       	or	r27, r23
    2872:	07 c0       	rjmp	.+14     	; 0x2882 <xTaskGenericNotifyFromISR+0x6e>
    2874:	89 a1       	ldd	r24, Y+33	; 0x21
    2876:	9a a1       	ldd	r25, Y+34	; 0x22
    2878:	ab a1       	ldd	r26, Y+35	; 0x23
    287a:	bc a1       	ldd	r27, Y+36	; 0x24
    287c:	01 96       	adiw	r24, 0x01	; 1
    287e:	a1 1d       	adc	r26, r1
    2880:	b1 1d       	adc	r27, r1
    2882:	89 a3       	std	Y+33, r24	; 0x21
    2884:	9a a3       	std	Y+34, r25	; 0x22
    2886:	ab a3       	std	Y+35, r26	; 0x23
    2888:	bc a3       	std	Y+36, r27	; 0x24
    288a:	08 c0       	rjmp	.+16     	; 0x289c <xTaskGenericNotifyFromISR+0x88>
    288c:	e2 30       	cpi	r30, 0x02	; 2
    288e:	11 f4       	brne	.+4      	; 0x2894 <xTaskGenericNotifyFromISR+0x80>
    2890:	80 e0       	ldi	r24, 0x00	; 0
    2892:	3a c0       	rjmp	.+116    	; 0x2908 <xTaskGenericNotifyFromISR+0xf4>
    2894:	49 a3       	std	Y+33, r20	; 0x21
    2896:	5a a3       	std	Y+34, r21	; 0x22
    2898:	6b a3       	std	Y+35, r22	; 0x23
    289a:	7c a3       	std	Y+36, r23	; 0x24
    289c:	e1 30       	cpi	r30, 0x01	; 1
    289e:	99 f5       	brne	.+102    	; 0x2906 <xTaskGenericNotifyFromISR+0xf2>
    28a0:	80 91 aa 06 	lds	r24, 0x06AA
    28a4:	88 23       	and	r24, r24
    28a6:	a9 f4       	brne	.+42     	; 0x28d2 <xTaskGenericNotifyFromISR+0xbe>
    28a8:	8e 01       	movw	r16, r28
    28aa:	0e 5f       	subi	r16, 0xFE	; 254
    28ac:	1f 4f       	sbci	r17, 0xFF	; 255
    28ae:	c8 01       	movw	r24, r16
    28b0:	0e 94 08 04 	call	0x810	; 0x810 <uxListRemove>
    28b4:	9e 89       	ldd	r25, Y+22	; 0x16
    28b6:	80 91 ab 06 	lds	r24, 0x06AB
    28ba:	89 17       	cp	r24, r25
    28bc:	10 f4       	brcc	.+4      	; 0x28c2 <xTaskGenericNotifyFromISR+0xae>
    28be:	90 93 ab 06 	sts	0x06AB, r25
    28c2:	89 e0       	ldi	r24, 0x09	; 9
    28c4:	98 9f       	mul	r25, r24
    28c6:	c0 01       	movw	r24, r0
    28c8:	11 24       	eor	r1, r1
    28ca:	87 54       	subi	r24, 0x47	; 71
    28cc:	99 4f       	sbci	r25, 0xF9	; 249
    28ce:	b8 01       	movw	r22, r16
    28d0:	05 c0       	rjmp	.+10     	; 0x28dc <xTaskGenericNotifyFromISR+0xc8>
    28d2:	be 01       	movw	r22, r28
    28d4:	64 5f       	subi	r22, 0xF4	; 244
    28d6:	7f 4f       	sbci	r23, 0xFF	; 255
    28d8:	83 ef       	ldi	r24, 0xF3	; 243
    28da:	96 e0       	ldi	r25, 0x06	; 6
    28dc:	0e 94 b7 03 	call	0x76e	; 0x76e <vListInsertEnd>
    28e0:	e0 91 a8 06 	lds	r30, 0x06A8
    28e4:	f0 91 a9 06 	lds	r31, 0x06A9
    28e8:	9e 89       	ldd	r25, Y+22	; 0x16
    28ea:	86 89       	ldd	r24, Z+22	; 0x16
    28ec:	89 17       	cp	r24, r25
    28ee:	58 f4       	brcc	.+22     	; 0x2906 <xTaskGenericNotifyFromISR+0xf2>
    28f0:	e1 14       	cp	r14, r1
    28f2:	f1 04       	cpc	r15, r1
    28f4:	21 f0       	breq	.+8      	; 0x28fe <xTaskGenericNotifyFromISR+0xea>
    28f6:	81 e0       	ldi	r24, 0x01	; 1
    28f8:	f7 01       	movw	r30, r14
    28fa:	80 83       	st	Z, r24
    28fc:	05 c0       	rjmp	.+10     	; 0x2908 <xTaskGenericNotifyFromISR+0xf4>
    28fe:	81 e0       	ldi	r24, 0x01	; 1
    2900:	80 93 ac 06 	sts	0x06AC, r24
    2904:	01 c0       	rjmp	.+2      	; 0x2908 <xTaskGenericNotifyFromISR+0xf4>
    2906:	81 e0       	ldi	r24, 0x01	; 1
    2908:	df 91       	pop	r29
    290a:	cf 91       	pop	r28
    290c:	1f 91       	pop	r17
    290e:	0f 91       	pop	r16
    2910:	ff 90       	pop	r15
    2912:	ef 90       	pop	r14
    2914:	08 95       	ret

00002916 <vTaskRemoveFromUnorderedEventList>:
    2916:	0f 93       	push	r16
    2918:	1f 93       	push	r17
    291a:	cf 93       	push	r28
    291c:	df 93       	push	r29
    291e:	fc 01       	movw	r30, r24
    2920:	70 68       	ori	r23, 0x80	; 128
    2922:	71 83       	std	Z+1, r23	; 0x01
    2924:	60 83       	st	Z, r22
    2926:	c6 81       	ldd	r28, Z+6	; 0x06
    2928:	d7 81       	ldd	r29, Z+7	; 0x07
    292a:	0e 94 08 04 	call	0x810	; 0x810 <uxListRemove>
    292e:	8e 01       	movw	r16, r28
    2930:	0e 5f       	subi	r16, 0xFE	; 254
    2932:	1f 4f       	sbci	r17, 0xFF	; 255
    2934:	c8 01       	movw	r24, r16
    2936:	0e 94 08 04 	call	0x810	; 0x810 <uxListRemove>
    293a:	9e 89       	ldd	r25, Y+22	; 0x16
    293c:	80 91 ab 06 	lds	r24, 0x06AB
    2940:	89 17       	cp	r24, r25
    2942:	10 f4       	brcc	.+4      	; 0x2948 <vTaskRemoveFromUnorderedEventList+0x32>
    2944:	90 93 ab 06 	sts	0x06AB, r25
    2948:	89 e0       	ldi	r24, 0x09	; 9
    294a:	98 9f       	mul	r25, r24
    294c:	c0 01       	movw	r24, r0
    294e:	11 24       	eor	r1, r1
    2950:	87 54       	subi	r24, 0x47	; 71
    2952:	99 4f       	sbci	r25, 0xF9	; 249
    2954:	b8 01       	movw	r22, r16
    2956:	0e 94 b7 03 	call	0x76e	; 0x76e <vListInsertEnd>
    295a:	e0 91 a8 06 	lds	r30, 0x06A8
    295e:	f0 91 a9 06 	lds	r31, 0x06A9
    2962:	9e 89       	ldd	r25, Y+22	; 0x16
    2964:	86 89       	ldd	r24, Z+22	; 0x16
    2966:	89 17       	cp	r24, r25
    2968:	18 f4       	brcc	.+6      	; 0x2970 <vTaskRemoveFromUnorderedEventList+0x5a>
    296a:	81 e0       	ldi	r24, 0x01	; 1
    296c:	80 93 ac 06 	sts	0x06AC, r24
    2970:	df 91       	pop	r29
    2972:	cf 91       	pop	r28
    2974:	1f 91       	pop	r17
    2976:	0f 91       	pop	r16
    2978:	08 95       	ret

0000297a <xTaskRemoveFromEventList>:
    297a:	0f 93       	push	r16
    297c:	1f 93       	push	r17
    297e:	cf 93       	push	r28
    2980:	df 93       	push	r29
    2982:	dc 01       	movw	r26, r24
    2984:	15 96       	adiw	r26, 0x05	; 5
    2986:	ed 91       	ld	r30, X+
    2988:	fc 91       	ld	r31, X
    298a:	16 97       	sbiw	r26, 0x06	; 6
    298c:	c6 81       	ldd	r28, Z+6	; 0x06
    298e:	d7 81       	ldd	r29, Z+7	; 0x07
    2990:	8e 01       	movw	r16, r28
    2992:	04 5f       	subi	r16, 0xF4	; 244
    2994:	1f 4f       	sbci	r17, 0xFF	; 255
    2996:	c8 01       	movw	r24, r16
    2998:	0e 94 08 04 	call	0x810	; 0x810 <uxListRemove>
    299c:	80 91 aa 06 	lds	r24, 0x06AA
    29a0:	88 23       	and	r24, r24
    29a2:	a1 f4       	brne	.+40     	; 0x29cc <xTaskRemoveFromEventList+0x52>
    29a4:	8e 01       	movw	r16, r28
    29a6:	0e 5f       	subi	r16, 0xFE	; 254
    29a8:	1f 4f       	sbci	r17, 0xFF	; 255
    29aa:	c8 01       	movw	r24, r16
    29ac:	0e 94 08 04 	call	0x810	; 0x810 <uxListRemove>
    29b0:	9e 89       	ldd	r25, Y+22	; 0x16
    29b2:	80 91 ab 06 	lds	r24, 0x06AB
    29b6:	89 17       	cp	r24, r25
    29b8:	10 f4       	brcc	.+4      	; 0x29be <xTaskRemoveFromEventList+0x44>
    29ba:	90 93 ab 06 	sts	0x06AB, r25
    29be:	89 e0       	ldi	r24, 0x09	; 9
    29c0:	98 9f       	mul	r25, r24
    29c2:	c0 01       	movw	r24, r0
    29c4:	11 24       	eor	r1, r1
    29c6:	87 54       	subi	r24, 0x47	; 71
    29c8:	99 4f       	sbci	r25, 0xF9	; 249
    29ca:	02 c0       	rjmp	.+4      	; 0x29d0 <xTaskRemoveFromEventList+0x56>
    29cc:	83 ef       	ldi	r24, 0xF3	; 243
    29ce:	96 e0       	ldi	r25, 0x06	; 6
    29d0:	b8 01       	movw	r22, r16
    29d2:	0e 94 b7 03 	call	0x76e	; 0x76e <vListInsertEnd>
    29d6:	e0 91 a8 06 	lds	r30, 0x06A8
    29da:	f0 91 a9 06 	lds	r31, 0x06A9
    29de:	9e 89       	ldd	r25, Y+22	; 0x16
    29e0:	86 89       	ldd	r24, Z+22	; 0x16
    29e2:	89 17       	cp	r24, r25
    29e4:	10 f0       	brcs	.+4      	; 0x29ea <xTaskRemoveFromEventList+0x70>
    29e6:	80 e0       	ldi	r24, 0x00	; 0
    29e8:	03 c0       	rjmp	.+6      	; 0x29f0 <xTaskRemoveFromEventList+0x76>
    29ea:	81 e0       	ldi	r24, 0x01	; 1
    29ec:	80 93 ac 06 	sts	0x06AC, r24
    29f0:	df 91       	pop	r29
    29f2:	cf 91       	pop	r28
    29f4:	1f 91       	pop	r17
    29f6:	0f 91       	pop	r16
    29f8:	08 95       	ret

000029fa <xTaskIncrementTick>:
    29fa:	cf 92       	push	r12
    29fc:	df 92       	push	r13
    29fe:	ef 92       	push	r14
    2a00:	ff 92       	push	r15
    2a02:	0f 93       	push	r16
    2a04:	1f 93       	push	r17
    2a06:	cf 93       	push	r28
    2a08:	df 93       	push	r29
    2a0a:	80 91 aa 06 	lds	r24, 0x06AA
    2a0e:	88 23       	and	r24, r24
    2a10:	09 f0       	breq	.+2      	; 0x2a14 <xTaskIncrementTick+0x1a>
    2a12:	a1 c0       	rjmp	.+322    	; 0x2b56 <xTaskIncrementTick+0x15c>
    2a14:	00 91 ad 06 	lds	r16, 0x06AD
    2a18:	10 91 ae 06 	lds	r17, 0x06AE
    2a1c:	0f 5f       	subi	r16, 0xFF	; 255
    2a1e:	1f 4f       	sbci	r17, 0xFF	; 255
    2a20:	10 93 ae 06 	sts	0x06AE, r17
    2a24:	00 93 ad 06 	sts	0x06AD, r16
    2a28:	01 15       	cp	r16, r1
    2a2a:	11 05       	cpc	r17, r1
    2a2c:	79 f5       	brne	.+94     	; 0x2a8c <xTaskIncrementTick+0x92>
    2a2e:	20 91 ef 06 	lds	r18, 0x06EF
    2a32:	30 91 f0 06 	lds	r19, 0x06F0
    2a36:	80 91 f1 06 	lds	r24, 0x06F1
    2a3a:	90 91 f2 06 	lds	r25, 0x06F2
    2a3e:	90 93 f0 06 	sts	0x06F0, r25
    2a42:	80 93 ef 06 	sts	0x06EF, r24
    2a46:	30 93 f2 06 	sts	0x06F2, r19
    2a4a:	20 93 f1 06 	sts	0x06F1, r18
    2a4e:	80 91 b1 06 	lds	r24, 0x06B1
    2a52:	8f 5f       	subi	r24, 0xFF	; 255
    2a54:	80 93 b1 06 	sts	0x06B1, r24
    2a58:	e0 91 ef 06 	lds	r30, 0x06EF
    2a5c:	f0 91 f0 06 	lds	r31, 0x06F0
    2a60:	80 81       	ld	r24, Z
    2a62:	88 23       	and	r24, r24
    2a64:	19 f4       	brne	.+6      	; 0x2a6c <xTaskIncrementTick+0x72>
    2a66:	8f ef       	ldi	r24, 0xFF	; 255
    2a68:	9f ef       	ldi	r25, 0xFF	; 255
    2a6a:	0c c0       	rjmp	.+24     	; 0x2a84 <xTaskIncrementTick+0x8a>
    2a6c:	e0 91 ef 06 	lds	r30, 0x06EF
    2a70:	f0 91 f0 06 	lds	r31, 0x06F0
    2a74:	05 80       	ldd	r0, Z+5	; 0x05
    2a76:	f6 81       	ldd	r31, Z+6	; 0x06
    2a78:	e0 2d       	mov	r30, r0
    2a7a:	06 80       	ldd	r0, Z+6	; 0x06
    2a7c:	f7 81       	ldd	r31, Z+7	; 0x07
    2a7e:	e0 2d       	mov	r30, r0
    2a80:	82 81       	ldd	r24, Z+2	; 0x02
    2a82:	93 81       	ldd	r25, Z+3	; 0x03
    2a84:	90 93 b0 06 	sts	0x06B0, r25
    2a88:	80 93 af 06 	sts	0x06AF, r24
    2a8c:	80 91 af 06 	lds	r24, 0x06AF
    2a90:	90 91 b0 06 	lds	r25, 0x06B0
    2a94:	08 17       	cp	r16, r24
    2a96:	19 07       	cpc	r17, r25
    2a98:	08 f4       	brcc	.+2      	; 0x2a9c <xTaskIncrementTick+0xa2>
    2a9a:	4b c0       	rjmp	.+150    	; 0x2b32 <xTaskIncrementTick+0x138>
    2a9c:	dd 24       	eor	r13, r13
    2a9e:	99 e0       	ldi	r25, 0x09	; 9
    2aa0:	c9 2e       	mov	r12, r25
    2aa2:	e0 91 ef 06 	lds	r30, 0x06EF
    2aa6:	f0 91 f0 06 	lds	r31, 0x06F0
    2aaa:	80 81       	ld	r24, Z
    2aac:	88 23       	and	r24, r24
    2aae:	19 f4       	brne	.+6      	; 0x2ab6 <xTaskIncrementTick+0xbc>
    2ab0:	8f ef       	ldi	r24, 0xFF	; 255
    2ab2:	9f ef       	ldi	r25, 0xFF	; 255
    2ab4:	0e c0       	rjmp	.+28     	; 0x2ad2 <xTaskIncrementTick+0xd8>
    2ab6:	e0 91 ef 06 	lds	r30, 0x06EF
    2aba:	f0 91 f0 06 	lds	r31, 0x06F0
    2abe:	05 80       	ldd	r0, Z+5	; 0x05
    2ac0:	f6 81       	ldd	r31, Z+6	; 0x06
    2ac2:	e0 2d       	mov	r30, r0
    2ac4:	c6 81       	ldd	r28, Z+6	; 0x06
    2ac6:	d7 81       	ldd	r29, Z+7	; 0x07
    2ac8:	8a 81       	ldd	r24, Y+2	; 0x02
    2aca:	9b 81       	ldd	r25, Y+3	; 0x03
    2acc:	08 17       	cp	r16, r24
    2ace:	19 07       	cpc	r17, r25
    2ad0:	28 f4       	brcc	.+10     	; 0x2adc <xTaskIncrementTick+0xe2>
    2ad2:	90 93 b0 06 	sts	0x06B0, r25
    2ad6:	80 93 af 06 	sts	0x06AF, r24
    2ada:	2c c0       	rjmp	.+88     	; 0x2b34 <xTaskIncrementTick+0x13a>
    2adc:	82 e0       	ldi	r24, 0x02	; 2
    2ade:	e8 2e       	mov	r14, r24
    2ae0:	f1 2c       	mov	r15, r1
    2ae2:	ec 0e       	add	r14, r28
    2ae4:	fd 1e       	adc	r15, r29
    2ae6:	c7 01       	movw	r24, r14
    2ae8:	0e 94 08 04 	call	0x810	; 0x810 <uxListRemove>
    2aec:	8c 89       	ldd	r24, Y+20	; 0x14
    2aee:	9d 89       	ldd	r25, Y+21	; 0x15
    2af0:	89 2b       	or	r24, r25
    2af2:	21 f0       	breq	.+8      	; 0x2afc <xTaskIncrementTick+0x102>
    2af4:	ce 01       	movw	r24, r28
    2af6:	0c 96       	adiw	r24, 0x0c	; 12
    2af8:	0e 94 08 04 	call	0x810	; 0x810 <uxListRemove>
    2afc:	9e 89       	ldd	r25, Y+22	; 0x16
    2afe:	80 91 ab 06 	lds	r24, 0x06AB
    2b02:	89 17       	cp	r24, r25
    2b04:	10 f4       	brcc	.+4      	; 0x2b0a <xTaskIncrementTick+0x110>
    2b06:	90 93 ab 06 	sts	0x06AB, r25
    2b0a:	9c 9d       	mul	r25, r12
    2b0c:	c0 01       	movw	r24, r0
    2b0e:	11 24       	eor	r1, r1
    2b10:	87 54       	subi	r24, 0x47	; 71
    2b12:	99 4f       	sbci	r25, 0xF9	; 249
    2b14:	b7 01       	movw	r22, r14
    2b16:	0e 94 b7 03 	call	0x76e	; 0x76e <vListInsertEnd>
    2b1a:	e0 91 a8 06 	lds	r30, 0x06A8
    2b1e:	f0 91 a9 06 	lds	r31, 0x06A9
    2b22:	9e 89       	ldd	r25, Y+22	; 0x16
    2b24:	86 89       	ldd	r24, Z+22	; 0x16
    2b26:	98 17       	cp	r25, r24
    2b28:	08 f4       	brcc	.+2      	; 0x2b2c <xTaskIncrementTick+0x132>
    2b2a:	bb cf       	rjmp	.-138    	; 0x2aa2 <xTaskIncrementTick+0xa8>
    2b2c:	dd 24       	eor	r13, r13
    2b2e:	d3 94       	inc	r13
    2b30:	b8 cf       	rjmp	.-144    	; 0x2aa2 <xTaskIncrementTick+0xa8>
    2b32:	dd 24       	eor	r13, r13
    2b34:	e0 91 a8 06 	lds	r30, 0x06A8
    2b38:	f0 91 a9 06 	lds	r31, 0x06A9
    2b3c:	e6 89       	ldd	r30, Z+22	; 0x16
    2b3e:	89 e0       	ldi	r24, 0x09	; 9
    2b40:	e8 9f       	mul	r30, r24
    2b42:	f0 01       	movw	r30, r0
    2b44:	11 24       	eor	r1, r1
    2b46:	e7 54       	subi	r30, 0x47	; 71
    2b48:	f9 4f       	sbci	r31, 0xF9	; 249
    2b4a:	80 81       	ld	r24, Z
    2b4c:	82 30       	cpi	r24, 0x02	; 2
    2b4e:	48 f0       	brcs	.+18     	; 0x2b62 <xTaskIncrementTick+0x168>
    2b50:	dd 24       	eor	r13, r13
    2b52:	d3 94       	inc	r13
    2b54:	06 c0       	rjmp	.+12     	; 0x2b62 <xTaskIncrementTick+0x168>
    2b56:	80 91 b2 06 	lds	r24, 0x06B2
    2b5a:	8f 5f       	subi	r24, 0xFF	; 255
    2b5c:	80 93 b2 06 	sts	0x06B2, r24
    2b60:	dd 24       	eor	r13, r13
    2b62:	80 91 ac 06 	lds	r24, 0x06AC
    2b66:	88 23       	and	r24, r24
    2b68:	11 f0       	breq	.+4      	; 0x2b6e <xTaskIncrementTick+0x174>
    2b6a:	dd 24       	eor	r13, r13
    2b6c:	d3 94       	inc	r13
    2b6e:	8d 2d       	mov	r24, r13
    2b70:	df 91       	pop	r29
    2b72:	cf 91       	pop	r28
    2b74:	1f 91       	pop	r17
    2b76:	0f 91       	pop	r16
    2b78:	ff 90       	pop	r15
    2b7a:	ef 90       	pop	r14
    2b7c:	df 90       	pop	r13
    2b7e:	cf 90       	pop	r12
    2b80:	08 95       	ret

00002b82 <xTaskGenericNotify>:
    2b82:	0f 93       	push	r16
    2b84:	1f 93       	push	r17
    2b86:	cf 93       	push	r28
    2b88:	df 93       	push	r29
    2b8a:	f8 01       	movw	r30, r16
    2b8c:	ec 01       	movw	r28, r24
    2b8e:	0f b6       	in	r0, 0x3f	; 63
    2b90:	f8 94       	cli
    2b92:	0f 92       	push	r0
    2b94:	01 15       	cp	r16, r1
    2b96:	11 05       	cpc	r17, r1
    2b98:	41 f0       	breq	.+16     	; 0x2baa <xTaskGenericNotify+0x28>
    2b9a:	89 a1       	ldd	r24, Y+33	; 0x21
    2b9c:	9a a1       	ldd	r25, Y+34	; 0x22
    2b9e:	ab a1       	ldd	r26, Y+35	; 0x23
    2ba0:	bc a1       	ldd	r27, Y+36	; 0x24
    2ba2:	80 83       	st	Z, r24
    2ba4:	91 83       	std	Z+1, r25	; 0x01
    2ba6:	a2 83       	std	Z+2, r26	; 0x02
    2ba8:	b3 83       	std	Z+3, r27	; 0x03
    2baa:	ed a1       	ldd	r30, Y+37	; 0x25
    2bac:	82 e0       	ldi	r24, 0x02	; 2
    2bae:	8d a3       	std	Y+37, r24	; 0x25
    2bb0:	22 30       	cpi	r18, 0x02	; 2
    2bb2:	31 05       	cpc	r19, r1
    2bb4:	b9 f0       	breq	.+46     	; 0x2be4 <xTaskGenericNotify+0x62>
    2bb6:	23 30       	cpi	r18, 0x03	; 3
    2bb8:	31 05       	cpc	r19, r1
    2bba:	20 f4       	brcc	.+8      	; 0x2bc4 <xTaskGenericNotify+0x42>
    2bbc:	21 30       	cpi	r18, 0x01	; 1
    2bbe:	31 05       	cpc	r19, r1
    2bc0:	29 f5       	brne	.+74     	; 0x2c0c <xTaskGenericNotify+0x8a>
    2bc2:	07 c0       	rjmp	.+14     	; 0x2bd2 <xTaskGenericNotify+0x50>
    2bc4:	23 30       	cpi	r18, 0x03	; 3
    2bc6:	31 05       	cpc	r19, r1
    2bc8:	e9 f0       	breq	.+58     	; 0x2c04 <xTaskGenericNotify+0x82>
    2bca:	24 30       	cpi	r18, 0x04	; 4
    2bcc:	31 05       	cpc	r19, r1
    2bce:	f1 f4       	brne	.+60     	; 0x2c0c <xTaskGenericNotify+0x8a>
    2bd0:	15 c0       	rjmp	.+42     	; 0x2bfc <xTaskGenericNotify+0x7a>
    2bd2:	89 a1       	ldd	r24, Y+33	; 0x21
    2bd4:	9a a1       	ldd	r25, Y+34	; 0x22
    2bd6:	ab a1       	ldd	r26, Y+35	; 0x23
    2bd8:	bc a1       	ldd	r27, Y+36	; 0x24
    2bda:	84 2b       	or	r24, r20
    2bdc:	95 2b       	or	r25, r21
    2bde:	a6 2b       	or	r26, r22
    2be0:	b7 2b       	or	r27, r23
    2be2:	07 c0       	rjmp	.+14     	; 0x2bf2 <xTaskGenericNotify+0x70>
    2be4:	89 a1       	ldd	r24, Y+33	; 0x21
    2be6:	9a a1       	ldd	r25, Y+34	; 0x22
    2be8:	ab a1       	ldd	r26, Y+35	; 0x23
    2bea:	bc a1       	ldd	r27, Y+36	; 0x24
    2bec:	01 96       	adiw	r24, 0x01	; 1
    2bee:	a1 1d       	adc	r26, r1
    2bf0:	b1 1d       	adc	r27, r1
    2bf2:	89 a3       	std	Y+33, r24	; 0x21
    2bf4:	9a a3       	std	Y+34, r25	; 0x22
    2bf6:	ab a3       	std	Y+35, r26	; 0x23
    2bf8:	bc a3       	std	Y+36, r27	; 0x24
    2bfa:	08 c0       	rjmp	.+16     	; 0x2c0c <xTaskGenericNotify+0x8a>
    2bfc:	e2 30       	cpi	r30, 0x02	; 2
    2bfe:	11 f4       	brne	.+4      	; 0x2c04 <xTaskGenericNotify+0x82>
    2c00:	80 e0       	ldi	r24, 0x00	; 0
    2c02:	27 c0       	rjmp	.+78     	; 0x2c52 <xTaskGenericNotify+0xd0>
    2c04:	49 a3       	std	Y+33, r20	; 0x21
    2c06:	5a a3       	std	Y+34, r21	; 0x22
    2c08:	6b a3       	std	Y+35, r22	; 0x23
    2c0a:	7c a3       	std	Y+36, r23	; 0x24
    2c0c:	e1 30       	cpi	r30, 0x01	; 1
    2c0e:	01 f5       	brne	.+64     	; 0x2c50 <xTaskGenericNotify+0xce>
    2c10:	8e 01       	movw	r16, r28
    2c12:	0e 5f       	subi	r16, 0xFE	; 254
    2c14:	1f 4f       	sbci	r17, 0xFF	; 255
    2c16:	c8 01       	movw	r24, r16
    2c18:	0e 94 08 04 	call	0x810	; 0x810 <uxListRemove>
    2c1c:	9e 89       	ldd	r25, Y+22	; 0x16
    2c1e:	80 91 ab 06 	lds	r24, 0x06AB
    2c22:	89 17       	cp	r24, r25
    2c24:	10 f4       	brcc	.+4      	; 0x2c2a <xTaskGenericNotify+0xa8>
    2c26:	90 93 ab 06 	sts	0x06AB, r25
    2c2a:	89 e0       	ldi	r24, 0x09	; 9
    2c2c:	98 9f       	mul	r25, r24
    2c2e:	c0 01       	movw	r24, r0
    2c30:	11 24       	eor	r1, r1
    2c32:	87 54       	subi	r24, 0x47	; 71
    2c34:	99 4f       	sbci	r25, 0xF9	; 249
    2c36:	b8 01       	movw	r22, r16
    2c38:	0e 94 b7 03 	call	0x76e	; 0x76e <vListInsertEnd>
    2c3c:	e0 91 a8 06 	lds	r30, 0x06A8
    2c40:	f0 91 a9 06 	lds	r31, 0x06A9
    2c44:	9e 89       	ldd	r25, Y+22	; 0x16
    2c46:	86 89       	ldd	r24, Z+22	; 0x16
    2c48:	89 17       	cp	r24, r25
    2c4a:	10 f4       	brcc	.+4      	; 0x2c50 <xTaskGenericNotify+0xce>
    2c4c:	0e 94 ae 08 	call	0x115c	; 0x115c <vPortYield>
    2c50:	81 e0       	ldi	r24, 0x01	; 1
    2c52:	0f 90       	pop	r0
    2c54:	0f be       	out	0x3f, r0	; 63
    2c56:	df 91       	pop	r29
    2c58:	cf 91       	pop	r28
    2c5a:	1f 91       	pop	r17
    2c5c:	0f 91       	pop	r16
    2c5e:	08 95       	ret

00002c60 <xTaskResumeAll>:
    2c60:	ef 92       	push	r14
    2c62:	ff 92       	push	r15
    2c64:	0f 93       	push	r16
    2c66:	1f 93       	push	r17
    2c68:	cf 93       	push	r28
    2c6a:	df 93       	push	r29
    2c6c:	0f b6       	in	r0, 0x3f	; 63
    2c6e:	f8 94       	cli
    2c70:	0f 92       	push	r0
    2c72:	80 91 aa 06 	lds	r24, 0x06AA
    2c76:	81 50       	subi	r24, 0x01	; 1
    2c78:	80 93 aa 06 	sts	0x06AA, r24
    2c7c:	80 91 aa 06 	lds	r24, 0x06AA
    2c80:	88 23       	and	r24, r24
    2c82:	09 f0       	breq	.+2      	; 0x2c86 <xTaskResumeAll+0x26>
    2c84:	6c c0       	rjmp	.+216    	; 0x2d5e <xTaskResumeAll+0xfe>
    2c86:	80 91 b3 06 	lds	r24, 0x06B3
    2c8a:	88 23       	and	r24, r24
    2c8c:	09 f4       	brne	.+2      	; 0x2c90 <xTaskResumeAll+0x30>
    2c8e:	67 c0       	rjmp	.+206    	; 0x2d5e <xTaskResumeAll+0xfe>
    2c90:	c0 e0       	ldi	r28, 0x00	; 0
    2c92:	d0 e0       	ldi	r29, 0x00	; 0
    2c94:	29 e0       	ldi	r18, 0x09	; 9
    2c96:	e2 2e       	mov	r14, r18
    2c98:	ff 24       	eor	r15, r15
    2c9a:	f3 94       	inc	r15
    2c9c:	29 c0       	rjmp	.+82     	; 0x2cf0 <xTaskResumeAll+0x90>
    2c9e:	e0 91 f8 06 	lds	r30, 0x06F8
    2ca2:	f0 91 f9 06 	lds	r31, 0x06F9
    2ca6:	c6 81       	ldd	r28, Z+6	; 0x06
    2ca8:	d7 81       	ldd	r29, Z+7	; 0x07
    2caa:	ce 01       	movw	r24, r28
    2cac:	0c 96       	adiw	r24, 0x0c	; 12
    2cae:	0e 94 08 04 	call	0x810	; 0x810 <uxListRemove>
    2cb2:	8e 01       	movw	r16, r28
    2cb4:	0e 5f       	subi	r16, 0xFE	; 254
    2cb6:	1f 4f       	sbci	r17, 0xFF	; 255
    2cb8:	c8 01       	movw	r24, r16
    2cba:	0e 94 08 04 	call	0x810	; 0x810 <uxListRemove>
    2cbe:	9e 89       	ldd	r25, Y+22	; 0x16
    2cc0:	80 91 ab 06 	lds	r24, 0x06AB
    2cc4:	89 17       	cp	r24, r25
    2cc6:	10 f4       	brcc	.+4      	; 0x2ccc <xTaskResumeAll+0x6c>
    2cc8:	90 93 ab 06 	sts	0x06AB, r25
    2ccc:	9e 9d       	mul	r25, r14
    2cce:	c0 01       	movw	r24, r0
    2cd0:	11 24       	eor	r1, r1
    2cd2:	87 54       	subi	r24, 0x47	; 71
    2cd4:	99 4f       	sbci	r25, 0xF9	; 249
    2cd6:	b8 01       	movw	r22, r16
    2cd8:	0e 94 b7 03 	call	0x76e	; 0x76e <vListInsertEnd>
    2cdc:	e0 91 a8 06 	lds	r30, 0x06A8
    2ce0:	f0 91 a9 06 	lds	r31, 0x06A9
    2ce4:	9e 89       	ldd	r25, Y+22	; 0x16
    2ce6:	86 89       	ldd	r24, Z+22	; 0x16
    2ce8:	98 17       	cp	r25, r24
    2cea:	10 f0       	brcs	.+4      	; 0x2cf0 <xTaskResumeAll+0x90>
    2cec:	f0 92 ac 06 	sts	0x06AC, r15
    2cf0:	80 91 f3 06 	lds	r24, 0x06F3
    2cf4:	88 23       	and	r24, r24
    2cf6:	99 f6       	brne	.-90     	; 0x2c9e <xTaskResumeAll+0x3e>
    2cf8:	cd 2b       	or	r28, r29
    2cfa:	d1 f0       	breq	.+52     	; 0x2d30 <xTaskResumeAll+0xd0>
    2cfc:	e0 91 ef 06 	lds	r30, 0x06EF
    2d00:	f0 91 f0 06 	lds	r31, 0x06F0
    2d04:	80 81       	ld	r24, Z
    2d06:	88 23       	and	r24, r24
    2d08:	19 f4       	brne	.+6      	; 0x2d10 <xTaskResumeAll+0xb0>
    2d0a:	8f ef       	ldi	r24, 0xFF	; 255
    2d0c:	9f ef       	ldi	r25, 0xFF	; 255
    2d0e:	0c c0       	rjmp	.+24     	; 0x2d28 <xTaskResumeAll+0xc8>
    2d10:	e0 91 ef 06 	lds	r30, 0x06EF
    2d14:	f0 91 f0 06 	lds	r31, 0x06F0
    2d18:	05 80       	ldd	r0, Z+5	; 0x05
    2d1a:	f6 81       	ldd	r31, Z+6	; 0x06
    2d1c:	e0 2d       	mov	r30, r0
    2d1e:	06 80       	ldd	r0, Z+6	; 0x06
    2d20:	f7 81       	ldd	r31, Z+7	; 0x07
    2d22:	e0 2d       	mov	r30, r0
    2d24:	82 81       	ldd	r24, Z+2	; 0x02
    2d26:	93 81       	ldd	r25, Z+3	; 0x03
    2d28:	90 93 b0 06 	sts	0x06B0, r25
    2d2c:	80 93 af 06 	sts	0x06AF, r24
    2d30:	10 91 b2 06 	lds	r17, 0x06B2
    2d34:	11 23       	and	r17, r17
    2d36:	59 f0       	breq	.+22     	; 0x2d4e <xTaskResumeAll+0xee>
    2d38:	01 e0       	ldi	r16, 0x01	; 1
    2d3a:	0e 94 fd 14 	call	0x29fa	; 0x29fa <xTaskIncrementTick>
    2d3e:	88 23       	and	r24, r24
    2d40:	11 f0       	breq	.+4      	; 0x2d46 <xTaskResumeAll+0xe6>
    2d42:	00 93 ac 06 	sts	0x06AC, r16
    2d46:	11 50       	subi	r17, 0x01	; 1
    2d48:	c1 f7       	brne	.-16     	; 0x2d3a <xTaskResumeAll+0xda>
    2d4a:	10 92 b2 06 	sts	0x06B2, r1
    2d4e:	80 91 ac 06 	lds	r24, 0x06AC
    2d52:	88 23       	and	r24, r24
    2d54:	21 f0       	breq	.+8      	; 0x2d5e <xTaskResumeAll+0xfe>
    2d56:	0e 94 ae 08 	call	0x115c	; 0x115c <vPortYield>
    2d5a:	81 e0       	ldi	r24, 0x01	; 1
    2d5c:	01 c0       	rjmp	.+2      	; 0x2d60 <xTaskResumeAll+0x100>
    2d5e:	80 e0       	ldi	r24, 0x00	; 0
    2d60:	0f 90       	pop	r0
    2d62:	0f be       	out	0x3f, r0	; 63
    2d64:	df 91       	pop	r29
    2d66:	cf 91       	pop	r28
    2d68:	1f 91       	pop	r17
    2d6a:	0f 91       	pop	r16
    2d6c:	ff 90       	pop	r15
    2d6e:	ef 90       	pop	r14
    2d70:	08 95       	ret

00002d72 <prvAddCurrentTaskToDelayedList>:
    2d72:	0f 93       	push	r16
    2d74:	1f 93       	push	r17
    2d76:	cf 93       	push	r28
    2d78:	df 93       	push	r29
    2d7a:	ec 01       	movw	r28, r24
    2d7c:	00 91 ad 06 	lds	r16, 0x06AD
    2d80:	10 91 ae 06 	lds	r17, 0x06AE
    2d84:	80 91 a8 06 	lds	r24, 0x06A8
    2d88:	90 91 a9 06 	lds	r25, 0x06A9
    2d8c:	02 96       	adiw	r24, 0x02	; 2
    2d8e:	0e 94 08 04 	call	0x810	; 0x810 <uxListRemove>
    2d92:	c0 0f       	add	r28, r16
    2d94:	d1 1f       	adc	r29, r17
    2d96:	e0 91 a8 06 	lds	r30, 0x06A8
    2d9a:	f0 91 a9 06 	lds	r31, 0x06A9
    2d9e:	d3 83       	std	Z+3, r29	; 0x03
    2da0:	c2 83       	std	Z+2, r28	; 0x02
    2da2:	c0 17       	cp	r28, r16
    2da4:	d1 07       	cpc	r29, r17
    2da6:	68 f4       	brcc	.+26     	; 0x2dc2 <prvAddCurrentTaskToDelayedList+0x50>
    2da8:	80 91 f1 06 	lds	r24, 0x06F1
    2dac:	90 91 f2 06 	lds	r25, 0x06F2
    2db0:	60 91 a8 06 	lds	r22, 0x06A8
    2db4:	70 91 a9 06 	lds	r23, 0x06A9
    2db8:	6e 5f       	subi	r22, 0xFE	; 254
    2dba:	7f 4f       	sbci	r23, 0xFF	; 255
    2dbc:	0e 94 d6 03 	call	0x7ac	; 0x7ac <vListInsert>
    2dc0:	17 c0       	rjmp	.+46     	; 0x2df0 <prvAddCurrentTaskToDelayedList+0x7e>
    2dc2:	80 91 ef 06 	lds	r24, 0x06EF
    2dc6:	90 91 f0 06 	lds	r25, 0x06F0
    2dca:	60 91 a8 06 	lds	r22, 0x06A8
    2dce:	70 91 a9 06 	lds	r23, 0x06A9
    2dd2:	6e 5f       	subi	r22, 0xFE	; 254
    2dd4:	7f 4f       	sbci	r23, 0xFF	; 255
    2dd6:	0e 94 d6 03 	call	0x7ac	; 0x7ac <vListInsert>
    2dda:	80 91 af 06 	lds	r24, 0x06AF
    2dde:	90 91 b0 06 	lds	r25, 0x06B0
    2de2:	c8 17       	cp	r28, r24
    2de4:	d9 07       	cpc	r29, r25
    2de6:	20 f4       	brcc	.+8      	; 0x2df0 <prvAddCurrentTaskToDelayedList+0x7e>
    2de8:	d0 93 b0 06 	sts	0x06B0, r29
    2dec:	c0 93 af 06 	sts	0x06AF, r28
    2df0:	df 91       	pop	r29
    2df2:	cf 91       	pop	r28
    2df4:	1f 91       	pop	r17
    2df6:	0f 91       	pop	r16
    2df8:	08 95       	ret

00002dfa <xTaskNotifyWait>:
    2dfa:	6f 92       	push	r6
    2dfc:	7f 92       	push	r7
    2dfe:	8f 92       	push	r8
    2e00:	9f 92       	push	r9
    2e02:	af 92       	push	r10
    2e04:	bf 92       	push	r11
    2e06:	cf 92       	push	r12
    2e08:	df 92       	push	r13
    2e0a:	ef 92       	push	r14
    2e0c:	ff 92       	push	r15
    2e0e:	0f 93       	push	r16
    2e10:	1f 93       	push	r17
    2e12:	cf 93       	push	r28
    2e14:	df 93       	push	r29
    2e16:	5b 01       	movw	r10, r22
    2e18:	6c 01       	movw	r12, r24
    2e1a:	39 01       	movw	r6, r18
    2e1c:	4a 01       	movw	r8, r20
    2e1e:	e8 01       	movw	r28, r16
    2e20:	0f b6       	in	r0, 0x3f	; 63
    2e22:	f8 94       	cli
    2e24:	0f 92       	push	r0
    2e26:	e0 91 a8 06 	lds	r30, 0x06A8
    2e2a:	f0 91 a9 06 	lds	r31, 0x06A9
    2e2e:	85 a1       	ldd	r24, Z+37	; 0x25
    2e30:	82 30       	cpi	r24, 0x02	; 2
    2e32:	19 f1       	breq	.+70     	; 0x2e7a <xTaskNotifyWait+0x80>
    2e34:	e0 91 a8 06 	lds	r30, 0x06A8
    2e38:	f0 91 a9 06 	lds	r31, 0x06A9
    2e3c:	81 a1       	ldd	r24, Z+33	; 0x21
    2e3e:	92 a1       	ldd	r25, Z+34	; 0x22
    2e40:	a3 a1       	ldd	r26, Z+35	; 0x23
    2e42:	b4 a1       	ldd	r27, Z+36	; 0x24
    2e44:	a0 94       	com	r10
    2e46:	b0 94       	com	r11
    2e48:	c0 94       	com	r12
    2e4a:	d0 94       	com	r13
    2e4c:	8a 21       	and	r24, r10
    2e4e:	9b 21       	and	r25, r11
    2e50:	ac 21       	and	r26, r12
    2e52:	bd 21       	and	r27, r13
    2e54:	81 a3       	std	Z+33, r24	; 0x21
    2e56:	92 a3       	std	Z+34, r25	; 0x22
    2e58:	a3 a3       	std	Z+35, r26	; 0x23
    2e5a:	b4 a3       	std	Z+36, r27	; 0x24
    2e5c:	e0 91 a8 06 	lds	r30, 0x06A8
    2e60:	f0 91 a9 06 	lds	r31, 0x06A9
    2e64:	81 e0       	ldi	r24, 0x01	; 1
    2e66:	85 a3       	std	Z+37, r24	; 0x25
    2e68:	e1 14       	cp	r14, r1
    2e6a:	f1 04       	cpc	r15, r1
    2e6c:	31 f0       	breq	.+12     	; 0x2e7a <xTaskNotifyWait+0x80>
    2e6e:	c7 01       	movw	r24, r14
    2e70:	61 e0       	ldi	r22, 0x01	; 1
    2e72:	0e 94 b9 16 	call	0x2d72	; 0x2d72 <prvAddCurrentTaskToDelayedList>
    2e76:	0e 94 ae 08 	call	0x115c	; 0x115c <vPortYield>
    2e7a:	0f 90       	pop	r0
    2e7c:	0f be       	out	0x3f, r0	; 63
    2e7e:	0f b6       	in	r0, 0x3f	; 63
    2e80:	f8 94       	cli
    2e82:	0f 92       	push	r0
    2e84:	20 97       	sbiw	r28, 0x00	; 0
    2e86:	61 f0       	breq	.+24     	; 0x2ea0 <xTaskNotifyWait+0xa6>
    2e88:	e0 91 a8 06 	lds	r30, 0x06A8
    2e8c:	f0 91 a9 06 	lds	r31, 0x06A9
    2e90:	81 a1       	ldd	r24, Z+33	; 0x21
    2e92:	92 a1       	ldd	r25, Z+34	; 0x22
    2e94:	a3 a1       	ldd	r26, Z+35	; 0x23
    2e96:	b4 a1       	ldd	r27, Z+36	; 0x24
    2e98:	88 83       	st	Y, r24
    2e9a:	99 83       	std	Y+1, r25	; 0x01
    2e9c:	aa 83       	std	Y+2, r26	; 0x02
    2e9e:	bb 83       	std	Y+3, r27	; 0x03
    2ea0:	e0 91 a8 06 	lds	r30, 0x06A8
    2ea4:	f0 91 a9 06 	lds	r31, 0x06A9
    2ea8:	85 a1       	ldd	r24, Z+37	; 0x25
    2eaa:	82 30       	cpi	r24, 0x02	; 2
    2eac:	11 f0       	breq	.+4      	; 0x2eb2 <xTaskNotifyWait+0xb8>
    2eae:	80 e0       	ldi	r24, 0x00	; 0
    2eb0:	15 c0       	rjmp	.+42     	; 0x2edc <xTaskNotifyWait+0xe2>
    2eb2:	e0 91 a8 06 	lds	r30, 0x06A8
    2eb6:	f0 91 a9 06 	lds	r31, 0x06A9
    2eba:	81 a1       	ldd	r24, Z+33	; 0x21
    2ebc:	92 a1       	ldd	r25, Z+34	; 0x22
    2ebe:	a3 a1       	ldd	r26, Z+35	; 0x23
    2ec0:	b4 a1       	ldd	r27, Z+36	; 0x24
    2ec2:	60 94       	com	r6
    2ec4:	70 94       	com	r7
    2ec6:	80 94       	com	r8
    2ec8:	90 94       	com	r9
    2eca:	86 21       	and	r24, r6
    2ecc:	97 21       	and	r25, r7
    2ece:	a8 21       	and	r26, r8
    2ed0:	b9 21       	and	r27, r9
    2ed2:	81 a3       	std	Z+33, r24	; 0x21
    2ed4:	92 a3       	std	Z+34, r25	; 0x22
    2ed6:	a3 a3       	std	Z+35, r26	; 0x23
    2ed8:	b4 a3       	std	Z+36, r27	; 0x24
    2eda:	81 e0       	ldi	r24, 0x01	; 1
    2edc:	e0 91 a8 06 	lds	r30, 0x06A8
    2ee0:	f0 91 a9 06 	lds	r31, 0x06A9
    2ee4:	15 a2       	std	Z+37, r1	; 0x25
    2ee6:	0f 90       	pop	r0
    2ee8:	0f be       	out	0x3f, r0	; 63
    2eea:	df 91       	pop	r29
    2eec:	cf 91       	pop	r28
    2eee:	1f 91       	pop	r17
    2ef0:	0f 91       	pop	r16
    2ef2:	ff 90       	pop	r15
    2ef4:	ef 90       	pop	r14
    2ef6:	df 90       	pop	r13
    2ef8:	cf 90       	pop	r12
    2efa:	bf 90       	pop	r11
    2efc:	af 90       	pop	r10
    2efe:	9f 90       	pop	r9
    2f00:	8f 90       	pop	r8
    2f02:	7f 90       	pop	r7
    2f04:	6f 90       	pop	r6
    2f06:	08 95       	ret

00002f08 <ulTaskNotifyTake>:
    2f08:	1f 93       	push	r17
    2f0a:	18 2f       	mov	r17, r24
    2f0c:	0f b6       	in	r0, 0x3f	; 63
    2f0e:	f8 94       	cli
    2f10:	0f 92       	push	r0
    2f12:	e0 91 a8 06 	lds	r30, 0x06A8
    2f16:	f0 91 a9 06 	lds	r31, 0x06A9
    2f1a:	81 a1       	ldd	r24, Z+33	; 0x21
    2f1c:	92 a1       	ldd	r25, Z+34	; 0x22
    2f1e:	a3 a1       	ldd	r26, Z+35	; 0x23
    2f20:	b4 a1       	ldd	r27, Z+36	; 0x24
    2f22:	00 97       	sbiw	r24, 0x00	; 0
    2f24:	a1 05       	cpc	r26, r1
    2f26:	b1 05       	cpc	r27, r1
    2f28:	79 f4       	brne	.+30     	; 0x2f48 <ulTaskNotifyTake+0x40>
    2f2a:	e0 91 a8 06 	lds	r30, 0x06A8
    2f2e:	f0 91 a9 06 	lds	r31, 0x06A9
    2f32:	81 e0       	ldi	r24, 0x01	; 1
    2f34:	85 a3       	std	Z+37, r24	; 0x25
    2f36:	61 15       	cp	r22, r1
    2f38:	71 05       	cpc	r23, r1
    2f3a:	31 f0       	breq	.+12     	; 0x2f48 <ulTaskNotifyTake+0x40>
    2f3c:	cb 01       	movw	r24, r22
    2f3e:	61 e0       	ldi	r22, 0x01	; 1
    2f40:	0e 94 b9 16 	call	0x2d72	; 0x2d72 <prvAddCurrentTaskToDelayedList>
    2f44:	0e 94 ae 08 	call	0x115c	; 0x115c <vPortYield>
    2f48:	0f 90       	pop	r0
    2f4a:	0f be       	out	0x3f, r0	; 63
    2f4c:	0f b6       	in	r0, 0x3f	; 63
    2f4e:	f8 94       	cli
    2f50:	0f 92       	push	r0
    2f52:	e0 91 a8 06 	lds	r30, 0x06A8
    2f56:	f0 91 a9 06 	lds	r31, 0x06A9
    2f5a:	21 a1       	ldd	r18, Z+33	; 0x21
    2f5c:	32 a1       	ldd	r19, Z+34	; 0x22
    2f5e:	43 a1       	ldd	r20, Z+35	; 0x23
    2f60:	54 a1       	ldd	r21, Z+36	; 0x24
    2f62:	21 15       	cp	r18, r1
    2f64:	31 05       	cpc	r19, r1
    2f66:	41 05       	cpc	r20, r1
    2f68:	51 05       	cpc	r21, r1
    2f6a:	d9 f0       	breq	.+54     	; 0x2fa2 <ulTaskNotifyTake+0x9a>
    2f6c:	11 23       	and	r17, r17
    2f6e:	49 f0       	breq	.+18     	; 0x2f82 <ulTaskNotifyTake+0x7a>
    2f70:	e0 91 a8 06 	lds	r30, 0x06A8
    2f74:	f0 91 a9 06 	lds	r31, 0x06A9
    2f78:	11 a2       	std	Z+33, r1	; 0x21
    2f7a:	12 a2       	std	Z+34, r1	; 0x22
    2f7c:	13 a2       	std	Z+35, r1	; 0x23
    2f7e:	14 a2       	std	Z+36, r1	; 0x24
    2f80:	10 c0       	rjmp	.+32     	; 0x2fa2 <ulTaskNotifyTake+0x9a>
    2f82:	e0 91 a8 06 	lds	r30, 0x06A8
    2f86:	f0 91 a9 06 	lds	r31, 0x06A9
    2f8a:	21 50       	subi	r18, 0x01	; 1
    2f8c:	30 40       	sbci	r19, 0x00	; 0
    2f8e:	40 40       	sbci	r20, 0x00	; 0
    2f90:	50 40       	sbci	r21, 0x00	; 0
    2f92:	21 a3       	std	Z+33, r18	; 0x21
    2f94:	32 a3       	std	Z+34, r19	; 0x22
    2f96:	43 a3       	std	Z+35, r20	; 0x23
    2f98:	54 a3       	std	Z+36, r21	; 0x24
    2f9a:	2f 5f       	subi	r18, 0xFF	; 255
    2f9c:	3f 4f       	sbci	r19, 0xFF	; 255
    2f9e:	4f 4f       	sbci	r20, 0xFF	; 255
    2fa0:	5f 4f       	sbci	r21, 0xFF	; 255
    2fa2:	e0 91 a8 06 	lds	r30, 0x06A8
    2fa6:	f0 91 a9 06 	lds	r31, 0x06A9
    2faa:	15 a2       	std	Z+37, r1	; 0x25
    2fac:	0f 90       	pop	r0
    2fae:	0f be       	out	0x3f, r0	; 63
    2fb0:	b9 01       	movw	r22, r18
    2fb2:	ca 01       	movw	r24, r20
    2fb4:	1f 91       	pop	r17
    2fb6:	08 95       	ret

00002fb8 <vTaskPlaceOnUnorderedEventList>:
    2fb8:	0f 93       	push	r16
    2fba:	1f 93       	push	r17
    2fbc:	8a 01       	movw	r16, r20
    2fbe:	e0 91 a8 06 	lds	r30, 0x06A8
    2fc2:	f0 91 a9 06 	lds	r31, 0x06A9
    2fc6:	70 68       	ori	r23, 0x80	; 128
    2fc8:	75 87       	std	Z+13, r23	; 0x0d
    2fca:	64 87       	std	Z+12, r22	; 0x0c
    2fcc:	60 91 a8 06 	lds	r22, 0x06A8
    2fd0:	70 91 a9 06 	lds	r23, 0x06A9
    2fd4:	64 5f       	subi	r22, 0xF4	; 244
    2fd6:	7f 4f       	sbci	r23, 0xFF	; 255
    2fd8:	0e 94 b7 03 	call	0x76e	; 0x76e <vListInsertEnd>
    2fdc:	c8 01       	movw	r24, r16
    2fde:	61 e0       	ldi	r22, 0x01	; 1
    2fe0:	0e 94 b9 16 	call	0x2d72	; 0x2d72 <prvAddCurrentTaskToDelayedList>
    2fe4:	1f 91       	pop	r17
    2fe6:	0f 91       	pop	r16
    2fe8:	08 95       	ret

00002fea <vTaskDelay>:
    2fea:	9c 01       	movw	r18, r24
    2fec:	00 97       	sbiw	r24, 0x00	; 0
    2fee:	69 f0       	breq	.+26     	; 0x300a <vTaskDelay+0x20>
    2ff0:	80 91 aa 06 	lds	r24, 0x06AA
    2ff4:	8f 5f       	subi	r24, 0xFF	; 255
    2ff6:	80 93 aa 06 	sts	0x06AA, r24
    2ffa:	c9 01       	movw	r24, r18
    2ffc:	60 e0       	ldi	r22, 0x00	; 0
    2ffe:	0e 94 b9 16 	call	0x2d72	; 0x2d72 <prvAddCurrentTaskToDelayedList>
    3002:	0e 94 30 16 	call	0x2c60	; 0x2c60 <xTaskResumeAll>
    3006:	88 23       	and	r24, r24
    3008:	11 f4       	brne	.+4      	; 0x300e <vTaskDelay+0x24>
    300a:	0e 94 ae 08 	call	0x115c	; 0x115c <vPortYield>
    300e:	08 95       	ret

00003010 <vTaskDelayUntil>:
    3010:	fc 01       	movw	r30, r24
    3012:	80 91 aa 06 	lds	r24, 0x06AA
    3016:	8f 5f       	subi	r24, 0xFF	; 255
    3018:	80 93 aa 06 	sts	0x06AA, r24
    301c:	40 91 ad 06 	lds	r20, 0x06AD
    3020:	50 91 ae 06 	lds	r21, 0x06AE
    3024:	20 81       	ld	r18, Z
    3026:	31 81       	ldd	r19, Z+1	; 0x01
    3028:	62 0f       	add	r22, r18
    302a:	73 1f       	adc	r23, r19
    302c:	42 17       	cp	r20, r18
    302e:	53 07       	cpc	r21, r19
    3030:	28 f4       	brcc	.+10     	; 0x303c <vTaskDelayUntil+0x2c>
    3032:	62 17       	cp	r22, r18
    3034:	73 07       	cpc	r23, r19
    3036:	28 f0       	brcs	.+10     	; 0x3042 <vTaskDelayUntil+0x32>
    3038:	80 e0       	ldi	r24, 0x00	; 0
    303a:	08 c0       	rjmp	.+16     	; 0x304c <vTaskDelayUntil+0x3c>
    303c:	62 17       	cp	r22, r18
    303e:	73 07       	cpc	r23, r19
    3040:	20 f0       	brcs	.+8      	; 0x304a <vTaskDelayUntil+0x3a>
    3042:	80 e0       	ldi	r24, 0x00	; 0
    3044:	46 17       	cp	r20, r22
    3046:	57 07       	cpc	r21, r23
    3048:	08 f4       	brcc	.+2      	; 0x304c <vTaskDelayUntil+0x3c>
    304a:	81 e0       	ldi	r24, 0x01	; 1
    304c:	71 83       	std	Z+1, r23	; 0x01
    304e:	60 83       	st	Z, r22
    3050:	88 23       	and	r24, r24
    3052:	31 f0       	breq	.+12     	; 0x3060 <vTaskDelayUntil+0x50>
    3054:	cb 01       	movw	r24, r22
    3056:	84 1b       	sub	r24, r20
    3058:	95 0b       	sbc	r25, r21
    305a:	60 e0       	ldi	r22, 0x00	; 0
    305c:	0e 94 b9 16 	call	0x2d72	; 0x2d72 <prvAddCurrentTaskToDelayedList>
    3060:	0e 94 30 16 	call	0x2c60	; 0x2c60 <xTaskResumeAll>
    3064:	88 23       	and	r24, r24
    3066:	11 f4       	brne	.+4      	; 0x306c <vTaskDelayUntil+0x5c>
    3068:	0e 94 ae 08 	call	0x115c	; 0x115c <vPortYield>
    306c:	08 95       	ret

0000306e <vTaskPlaceOnEventList>:
    306e:	0f 93       	push	r16
    3070:	1f 93       	push	r17
    3072:	8b 01       	movw	r16, r22
    3074:	60 91 a8 06 	lds	r22, 0x06A8
    3078:	70 91 a9 06 	lds	r23, 0x06A9
    307c:	64 5f       	subi	r22, 0xF4	; 244
    307e:	7f 4f       	sbci	r23, 0xFF	; 255
    3080:	0e 94 d6 03 	call	0x7ac	; 0x7ac <vListInsert>
    3084:	c8 01       	movw	r24, r16
    3086:	61 e0       	ldi	r22, 0x01	; 1
    3088:	0e 94 b9 16 	call	0x2d72	; 0x2d72 <prvAddCurrentTaskToDelayedList>
    308c:	1f 91       	pop	r17
    308e:	0f 91       	pop	r16
    3090:	08 95       	ret

00003092 <vTaskEndScheduler>:
    3092:	f8 94       	cli
    3094:	10 92 b4 06 	sts	0x06B4, r1
    3098:	0e 94 4d 08 	call	0x109a	; 0x109a <vPortEndScheduler>
    309c:	08 95       	ret

0000309e <prvIdleTask>:
    309e:	0f 93       	push	r16
    30a0:	1f 93       	push	r17
    30a2:	21 c0       	rjmp	.+66     	; 0x30e6 <prvIdleTask+0x48>
    30a4:	0f b6       	in	r0, 0x3f	; 63
    30a6:	f8 94       	cli
    30a8:	0f 92       	push	r0
    30aa:	e0 91 01 07 	lds	r30, 0x0701
    30ae:	f0 91 02 07 	lds	r31, 0x0702
    30b2:	06 81       	ldd	r16, Z+6	; 0x06
    30b4:	17 81       	ldd	r17, Z+7	; 0x07
    30b6:	c8 01       	movw	r24, r16
    30b8:	02 96       	adiw	r24, 0x02	; 2
    30ba:	0e 94 08 04 	call	0x810	; 0x810 <uxListRemove>
    30be:	80 91 b3 06 	lds	r24, 0x06B3
    30c2:	81 50       	subi	r24, 0x01	; 1
    30c4:	80 93 b3 06 	sts	0x06B3, r24
    30c8:	80 91 b7 06 	lds	r24, 0x06B7
    30cc:	81 50       	subi	r24, 0x01	; 1
    30ce:	80 93 b7 06 	sts	0x06B7, r24
    30d2:	0f 90       	pop	r0
    30d4:	0f be       	out	0x3f, r0	; 63
    30d6:	f8 01       	movw	r30, r16
    30d8:	87 89       	ldd	r24, Z+23	; 0x17
    30da:	90 8d       	ldd	r25, Z+24	; 0x18
    30dc:	0e 94 07 09 	call	0x120e	; 0x120e <vPortFree>
    30e0:	c8 01       	movw	r24, r16
    30e2:	0e 94 07 09 	call	0x120e	; 0x120e <vPortFree>
    30e6:	80 91 b7 06 	lds	r24, 0x06B7
    30ea:	88 23       	and	r24, r24
    30ec:	d9 f6       	brne	.-74     	; 0x30a4 <prvIdleTask+0x6>
    30ee:	80 91 b9 06 	lds	r24, 0x06B9
    30f2:	82 30       	cpi	r24, 0x02	; 2
    30f4:	c0 f3       	brcs	.-16     	; 0x30e6 <prvIdleTask+0x48>
    30f6:	0e 94 ae 08 	call	0x115c	; 0x115c <vPortYield>
    30fa:	f5 cf       	rjmp	.-22     	; 0x30e6 <prvIdleTask+0x48>

000030fc <vTaskDelete>:
    30fc:	0f 93       	push	r16
    30fe:	1f 93       	push	r17
    3100:	cf 93       	push	r28
    3102:	df 93       	push	r29
    3104:	0f b6       	in	r0, 0x3f	; 63
    3106:	f8 94       	cli
    3108:	0f 92       	push	r0
    310a:	00 97       	sbiw	r24, 0x00	; 0
    310c:	29 f4       	brne	.+10     	; 0x3118 <vTaskDelete+0x1c>
    310e:	c0 91 a8 06 	lds	r28, 0x06A8
    3112:	d0 91 a9 06 	lds	r29, 0x06A9
    3116:	01 c0       	rjmp	.+2      	; 0x311a <vTaskDelete+0x1e>
    3118:	ec 01       	movw	r28, r24
    311a:	8e 01       	movw	r16, r28
    311c:	0e 5f       	subi	r16, 0xFE	; 254
    311e:	1f 4f       	sbci	r17, 0xFF	; 255
    3120:	c8 01       	movw	r24, r16
    3122:	0e 94 08 04 	call	0x810	; 0x810 <uxListRemove>
    3126:	8c 89       	ldd	r24, Y+20	; 0x14
    3128:	9d 89       	ldd	r25, Y+21	; 0x15
    312a:	89 2b       	or	r24, r25
    312c:	21 f0       	breq	.+8      	; 0x3136 <vTaskDelete+0x3a>
    312e:	ce 01       	movw	r24, r28
    3130:	0c 96       	adiw	r24, 0x0c	; 12
    3132:	0e 94 08 04 	call	0x810	; 0x810 <uxListRemove>
    3136:	80 91 b8 06 	lds	r24, 0x06B8
    313a:	8f 5f       	subi	r24, 0xFF	; 255
    313c:	80 93 b8 06 	sts	0x06B8, r24
    3140:	80 91 a8 06 	lds	r24, 0x06A8
    3144:	90 91 a9 06 	lds	r25, 0x06A9
    3148:	c8 17       	cp	r28, r24
    314a:	d9 07       	cpc	r29, r25
    314c:	59 f4       	brne	.+22     	; 0x3164 <vTaskDelete+0x68>
    314e:	8c ef       	ldi	r24, 0xFC	; 252
    3150:	96 e0       	ldi	r25, 0x06	; 6
    3152:	b8 01       	movw	r22, r16
    3154:	0e 94 b7 03 	call	0x76e	; 0x76e <vListInsertEnd>
    3158:	80 91 b7 06 	lds	r24, 0x06B7
    315c:	8f 5f       	subi	r24, 0xFF	; 255
    315e:	80 93 b7 06 	sts	0x06B7, r24
    3162:	26 c0       	rjmp	.+76     	; 0x31b0 <vTaskDelete+0xb4>
    3164:	80 91 b3 06 	lds	r24, 0x06B3
    3168:	81 50       	subi	r24, 0x01	; 1
    316a:	80 93 b3 06 	sts	0x06B3, r24
    316e:	8f 89       	ldd	r24, Y+23	; 0x17
    3170:	98 8d       	ldd	r25, Y+24	; 0x18
    3172:	0e 94 07 09 	call	0x120e	; 0x120e <vPortFree>
    3176:	ce 01       	movw	r24, r28
    3178:	0e 94 07 09 	call	0x120e	; 0x120e <vPortFree>
    317c:	e0 91 ef 06 	lds	r30, 0x06EF
    3180:	f0 91 f0 06 	lds	r31, 0x06F0
    3184:	80 81       	ld	r24, Z
    3186:	88 23       	and	r24, r24
    3188:	19 f4       	brne	.+6      	; 0x3190 <vTaskDelete+0x94>
    318a:	8f ef       	ldi	r24, 0xFF	; 255
    318c:	9f ef       	ldi	r25, 0xFF	; 255
    318e:	0c c0       	rjmp	.+24     	; 0x31a8 <vTaskDelete+0xac>
    3190:	e0 91 ef 06 	lds	r30, 0x06EF
    3194:	f0 91 f0 06 	lds	r31, 0x06F0
    3198:	05 80       	ldd	r0, Z+5	; 0x05
    319a:	f6 81       	ldd	r31, Z+6	; 0x06
    319c:	e0 2d       	mov	r30, r0
    319e:	06 80       	ldd	r0, Z+6	; 0x06
    31a0:	f7 81       	ldd	r31, Z+7	; 0x07
    31a2:	e0 2d       	mov	r30, r0
    31a4:	82 81       	ldd	r24, Z+2	; 0x02
    31a6:	93 81       	ldd	r25, Z+3	; 0x03
    31a8:	90 93 b0 06 	sts	0x06B0, r25
    31ac:	80 93 af 06 	sts	0x06AF, r24
    31b0:	0f 90       	pop	r0
    31b2:	0f be       	out	0x3f, r0	; 63
    31b4:	80 91 b4 06 	lds	r24, 0x06B4
    31b8:	88 23       	and	r24, r24
    31ba:	49 f0       	breq	.+18     	; 0x31ce <vTaskDelete+0xd2>
    31bc:	80 91 a8 06 	lds	r24, 0x06A8
    31c0:	90 91 a9 06 	lds	r25, 0x06A9
    31c4:	c8 17       	cp	r28, r24
    31c6:	d9 07       	cpc	r29, r25
    31c8:	11 f4       	brne	.+4      	; 0x31ce <vTaskDelete+0xd2>
    31ca:	0e 94 ae 08 	call	0x115c	; 0x115c <vPortYield>
    31ce:	df 91       	pop	r29
    31d0:	cf 91       	pop	r28
    31d2:	1f 91       	pop	r17
    31d4:	0f 91       	pop	r16
    31d6:	08 95       	ret

000031d8 <xTaskCreate>:
    31d8:	4f 92       	push	r4
    31da:	5f 92       	push	r5
    31dc:	6f 92       	push	r6
    31de:	7f 92       	push	r7
    31e0:	8f 92       	push	r8
    31e2:	9f 92       	push	r9
    31e4:	af 92       	push	r10
    31e6:	bf 92       	push	r11
    31e8:	cf 92       	push	r12
    31ea:	df 92       	push	r13
    31ec:	ef 92       	push	r14
    31ee:	ff 92       	push	r15
    31f0:	0f 93       	push	r16
    31f2:	1f 93       	push	r17
    31f4:	cf 93       	push	r28
    31f6:	df 93       	push	r29
    31f8:	2c 01       	movw	r4, r24
    31fa:	16 2f       	mov	r17, r22
    31fc:	97 2e       	mov	r9, r23
    31fe:	6a 01       	movw	r12, r20
    3200:	39 01       	movw	r6, r18
    3202:	57 01       	movw	r10, r14
    3204:	ca 01       	movw	r24, r20
    3206:	0e 94 17 09 	call	0x122e	; 0x122e <pvPortMalloc>
    320a:	7c 01       	movw	r14, r24
    320c:	00 97       	sbiw	r24, 0x00	; 0
    320e:	99 f0       	breq	.+38     	; 0x3236 <xTaskCreate+0x5e>
    3210:	86 e2       	ldi	r24, 0x26	; 38
    3212:	90 e0       	ldi	r25, 0x00	; 0
    3214:	0e 94 17 09 	call	0x122e	; 0x122e <pvPortMalloc>
    3218:	ec 01       	movw	r28, r24
    321a:	00 97       	sbiw	r24, 0x00	; 0
    321c:	49 f0       	breq	.+18     	; 0x3230 <xTaskCreate+0x58>
    321e:	f8 8e       	std	Y+24, r15	; 0x18
    3220:	ef 8a       	std	Y+23, r14	; 0x17
    3222:	81 2f       	mov	r24, r17
    3224:	99 2d       	mov	r25, r9
    3226:	9c 01       	movw	r18, r24
    3228:	f9 01       	movw	r30, r18
    322a:	de 01       	movw	r26, r28
    322c:	90 e0       	ldi	r25, 0x00	; 0
    322e:	05 c0       	rjmp	.+10     	; 0x323a <xTaskCreate+0x62>
    3230:	c7 01       	movw	r24, r14
    3232:	0e 94 07 09 	call	0x120e	; 0x120e <vPortFree>
    3236:	8f ef       	ldi	r24, 0xFF	; 255
    3238:	b7 c0       	rjmp	.+366    	; 0x33a8 <xTaskCreate+0x1d0>
    323a:	80 81       	ld	r24, Z
    323c:	59 96       	adiw	r26, 0x19	; 25
    323e:	8c 93       	st	X, r24
    3240:	59 97       	sbiw	r26, 0x19	; 25
    3242:	80 81       	ld	r24, Z
    3244:	88 23       	and	r24, r24
    3246:	29 f0       	breq	.+10     	; 0x3252 <xTaskCreate+0x7a>
    3248:	9f 5f       	subi	r25, 0xFF	; 255
    324a:	31 96       	adiw	r30, 0x01	; 1
    324c:	11 96       	adiw	r26, 0x01	; 1
    324e:	98 30       	cpi	r25, 0x08	; 8
    3250:	a1 f7       	brne	.-24     	; 0x323a <xTaskCreate+0x62>
    3252:	18 a2       	std	Y+32, r1	; 0x20
    3254:	04 30       	cpi	r16, 0x04	; 4
    3256:	08 f0       	brcs	.+2      	; 0x325a <xTaskCreate+0x82>
    3258:	03 e0       	ldi	r16, 0x03	; 3
    325a:	0e 8b       	std	Y+22, r16	; 0x16
    325c:	42 e0       	ldi	r20, 0x02	; 2
    325e:	84 2e       	mov	r8, r20
    3260:	91 2c       	mov	r9, r1
    3262:	8c 0e       	add	r8, r28
    3264:	9d 1e       	adc	r9, r29
    3266:	c4 01       	movw	r24, r8
    3268:	0e 94 b3 03 	call	0x766	; 0x766 <vListInitialiseItem>
    326c:	ce 01       	movw	r24, r28
    326e:	0c 96       	adiw	r24, 0x0c	; 12
    3270:	0e 94 b3 03 	call	0x766	; 0x766 <vListInitialiseItem>
    3274:	d9 87       	std	Y+9, r29	; 0x09
    3276:	c8 87       	std	Y+8, r28	; 0x08
    3278:	84 e0       	ldi	r24, 0x04	; 4
    327a:	90 e0       	ldi	r25, 0x00	; 0
    327c:	80 1b       	sub	r24, r16
    327e:	91 09       	sbc	r25, r1
    3280:	9d 87       	std	Y+13, r25	; 0x0d
    3282:	8c 87       	std	Y+12, r24	; 0x0c
    3284:	db 8b       	std	Y+19, r29	; 0x13
    3286:	ca 8b       	std	Y+18, r28	; 0x12
    3288:	19 a2       	std	Y+33, r1	; 0x21
    328a:	1a a2       	std	Y+34, r1	; 0x22
    328c:	1b a2       	std	Y+35, r1	; 0x23
    328e:	1c a2       	std	Y+36, r1	; 0x24
    3290:	1d a2       	std	Y+37, r1	; 0x25
    3292:	08 94       	sec
    3294:	c1 08       	sbc	r12, r1
    3296:	d1 08       	sbc	r13, r1
    3298:	c7 01       	movw	r24, r14
    329a:	8c 0d       	add	r24, r12
    329c:	9d 1d       	adc	r25, r13
    329e:	b2 01       	movw	r22, r4
    32a0:	a3 01       	movw	r20, r6
    32a2:	0e 94 cd 07 	call	0xf9a	; 0xf9a <pxPortInitialiseStack>
    32a6:	99 83       	std	Y+1, r25	; 0x01
    32a8:	88 83       	st	Y, r24
    32aa:	a1 14       	cp	r10, r1
    32ac:	b1 04       	cpc	r11, r1
    32ae:	19 f0       	breq	.+6      	; 0x32b6 <xTaskCreate+0xde>
    32b0:	f5 01       	movw	r30, r10
    32b2:	d1 83       	std	Z+1, r29	; 0x01
    32b4:	c0 83       	st	Z, r28
    32b6:	0f b6       	in	r0, 0x3f	; 63
    32b8:	f8 94       	cli
    32ba:	0f 92       	push	r0
    32bc:	80 91 b3 06 	lds	r24, 0x06B3
    32c0:	8f 5f       	subi	r24, 0xFF	; 255
    32c2:	80 93 b3 06 	sts	0x06B3, r24
    32c6:	80 91 a8 06 	lds	r24, 0x06A8
    32ca:	90 91 a9 06 	lds	r25, 0x06A9
    32ce:	89 2b       	or	r24, r25
    32d0:	a9 f5       	brne	.+106    	; 0x333c <xTaskCreate+0x164>
    32d2:	d0 93 a9 06 	sts	0x06A9, r29
    32d6:	c0 93 a8 06 	sts	0x06A8, r28
    32da:	80 91 b3 06 	lds	r24, 0x06B3
    32de:	81 30       	cpi	r24, 0x01	; 1
    32e0:	e9 f5       	brne	.+122    	; 0x335c <xTaskCreate+0x184>
    32e2:	89 eb       	ldi	r24, 0xB9	; 185
    32e4:	96 e0       	ldi	r25, 0x06	; 6
    32e6:	0e 94 a3 03 	call	0x746	; 0x746 <vListInitialise>
    32ea:	82 ec       	ldi	r24, 0xC2	; 194
    32ec:	96 e0       	ldi	r25, 0x06	; 6
    32ee:	0e 94 a3 03 	call	0x746	; 0x746 <vListInitialise>
    32f2:	8b ec       	ldi	r24, 0xCB	; 203
    32f4:	96 e0       	ldi	r25, 0x06	; 6
    32f6:	0e 94 a3 03 	call	0x746	; 0x746 <vListInitialise>
    32fa:	84 ed       	ldi	r24, 0xD4	; 212
    32fc:	96 e0       	ldi	r25, 0x06	; 6
    32fe:	0e 94 a3 03 	call	0x746	; 0x746 <vListInitialise>
    3302:	3d ed       	ldi	r19, 0xDD	; 221
    3304:	e3 2e       	mov	r14, r19
    3306:	36 e0       	ldi	r19, 0x06	; 6
    3308:	f3 2e       	mov	r15, r19
    330a:	c7 01       	movw	r24, r14
    330c:	0e 94 a3 03 	call	0x746	; 0x746 <vListInitialise>
    3310:	06 ee       	ldi	r16, 0xE6	; 230
    3312:	16 e0       	ldi	r17, 0x06	; 6
    3314:	c8 01       	movw	r24, r16
    3316:	0e 94 a3 03 	call	0x746	; 0x746 <vListInitialise>
    331a:	83 ef       	ldi	r24, 0xF3	; 243
    331c:	96 e0       	ldi	r25, 0x06	; 6
    331e:	0e 94 a3 03 	call	0x746	; 0x746 <vListInitialise>
    3322:	8c ef       	ldi	r24, 0xFC	; 252
    3324:	96 e0       	ldi	r25, 0x06	; 6
    3326:	0e 94 a3 03 	call	0x746	; 0x746 <vListInitialise>
    332a:	f0 92 f0 06 	sts	0x06F0, r15
    332e:	e0 92 ef 06 	sts	0x06EF, r14
    3332:	10 93 f2 06 	sts	0x06F2, r17
    3336:	00 93 f1 06 	sts	0x06F1, r16
    333a:	10 c0       	rjmp	.+32     	; 0x335c <xTaskCreate+0x184>
    333c:	80 91 b4 06 	lds	r24, 0x06B4
    3340:	88 23       	and	r24, r24
    3342:	61 f4       	brne	.+24     	; 0x335c <xTaskCreate+0x184>
    3344:	e0 91 a8 06 	lds	r30, 0x06A8
    3348:	f0 91 a9 06 	lds	r31, 0x06A9
    334c:	96 89       	ldd	r25, Z+22	; 0x16
    334e:	8e 89       	ldd	r24, Y+22	; 0x16
    3350:	89 17       	cp	r24, r25
    3352:	20 f0       	brcs	.+8      	; 0x335c <xTaskCreate+0x184>
    3354:	d0 93 a9 06 	sts	0x06A9, r29
    3358:	c0 93 a8 06 	sts	0x06A8, r28
    335c:	80 91 b8 06 	lds	r24, 0x06B8
    3360:	8f 5f       	subi	r24, 0xFF	; 255
    3362:	80 93 b8 06 	sts	0x06B8, r24
    3366:	9e 89       	ldd	r25, Y+22	; 0x16
    3368:	80 91 ab 06 	lds	r24, 0x06AB
    336c:	89 17       	cp	r24, r25
    336e:	10 f4       	brcc	.+4      	; 0x3374 <xTaskCreate+0x19c>
    3370:	90 93 ab 06 	sts	0x06AB, r25
    3374:	89 e0       	ldi	r24, 0x09	; 9
    3376:	98 9f       	mul	r25, r24
    3378:	c0 01       	movw	r24, r0
    337a:	11 24       	eor	r1, r1
    337c:	87 54       	subi	r24, 0x47	; 71
    337e:	99 4f       	sbci	r25, 0xF9	; 249
    3380:	b4 01       	movw	r22, r8
    3382:	0e 94 b7 03 	call	0x76e	; 0x76e <vListInsertEnd>
    3386:	0f 90       	pop	r0
    3388:	0f be       	out	0x3f, r0	; 63
    338a:	80 91 b4 06 	lds	r24, 0x06B4
    338e:	88 23       	and	r24, r24
    3390:	51 f0       	breq	.+20     	; 0x33a6 <xTaskCreate+0x1ce>
    3392:	e0 91 a8 06 	lds	r30, 0x06A8
    3396:	f0 91 a9 06 	lds	r31, 0x06A9
    339a:	96 89       	ldd	r25, Z+22	; 0x16
    339c:	8e 89       	ldd	r24, Y+22	; 0x16
    339e:	98 17       	cp	r25, r24
    33a0:	10 f4       	brcc	.+4      	; 0x33a6 <xTaskCreate+0x1ce>
    33a2:	0e 94 ae 08 	call	0x115c	; 0x115c <vPortYield>
    33a6:	81 e0       	ldi	r24, 0x01	; 1
    33a8:	df 91       	pop	r29
    33aa:	cf 91       	pop	r28
    33ac:	1f 91       	pop	r17
    33ae:	0f 91       	pop	r16
    33b0:	ff 90       	pop	r15
    33b2:	ef 90       	pop	r14
    33b4:	df 90       	pop	r13
    33b6:	cf 90       	pop	r12
    33b8:	bf 90       	pop	r11
    33ba:	af 90       	pop	r10
    33bc:	9f 90       	pop	r9
    33be:	8f 90       	pop	r8
    33c0:	7f 90       	pop	r7
    33c2:	6f 90       	pop	r6
    33c4:	5f 90       	pop	r5
    33c6:	4f 90       	pop	r4
    33c8:	08 95       	ret

000033ca <vTaskStartScheduler>:
    33ca:	ef 92       	push	r14
    33cc:	ff 92       	push	r15
    33ce:	0f 93       	push	r16
    33d0:	8f e4       	ldi	r24, 0x4F	; 79
    33d2:	98 e1       	ldi	r25, 0x18	; 24
    33d4:	66 e5       	ldi	r22, 0x56	; 86
    33d6:	71 e0       	ldi	r23, 0x01	; 1
    33d8:	45 e5       	ldi	r20, 0x55	; 85
    33da:	50 e0       	ldi	r21, 0x00	; 0
    33dc:	20 e0       	ldi	r18, 0x00	; 0
    33de:	30 e0       	ldi	r19, 0x00	; 0
    33e0:	00 e0       	ldi	r16, 0x00	; 0
    33e2:	e5 eb       	ldi	r30, 0xB5	; 181
    33e4:	ee 2e       	mov	r14, r30
    33e6:	e6 e0       	ldi	r30, 0x06	; 6
    33e8:	fe 2e       	mov	r15, r30
    33ea:	0e 94 ec 18 	call	0x31d8	; 0x31d8 <xTaskCreate>
    33ee:	81 30       	cpi	r24, 0x01	; 1
    33f0:	81 f4       	brne	.+32     	; 0x3412 <vTaskStartScheduler+0x48>
    33f2:	f8 94       	cli
    33f4:	8f ef       	ldi	r24, 0xFF	; 255
    33f6:	9f ef       	ldi	r25, 0xFF	; 255
    33f8:	90 93 b0 06 	sts	0x06B0, r25
    33fc:	80 93 af 06 	sts	0x06AF, r24
    3400:	81 e0       	ldi	r24, 0x01	; 1
    3402:	80 93 b4 06 	sts	0x06B4, r24
    3406:	10 92 ae 06 	sts	0x06AE, r1
    340a:	10 92 ad 06 	sts	0x06AD, r1
    340e:	0e 94 15 08 	call	0x102a	; 0x102a <xPortStartScheduler>
    3412:	0f 91       	pop	r16
    3414:	ff 90       	pop	r15
    3416:	ef 90       	pop	r14
    3418:	08 95       	ret

0000341a <__fixunssfsi>:
    341a:	ef 92       	push	r14
    341c:	ff 92       	push	r15
    341e:	0f 93       	push	r16
    3420:	1f 93       	push	r17
    3422:	7b 01       	movw	r14, r22
    3424:	8c 01       	movw	r16, r24
    3426:	20 e0       	ldi	r18, 0x00	; 0
    3428:	30 e0       	ldi	r19, 0x00	; 0
    342a:	40 e0       	ldi	r20, 0x00	; 0
    342c:	5f e4       	ldi	r21, 0x4F	; 79
    342e:	0e 94 b9 1d 	call	0x3b72	; 0x3b72 <__gesf2>
    3432:	88 23       	and	r24, r24
    3434:	8c f0       	brlt	.+34     	; 0x3458 <__fixunssfsi+0x3e>
    3436:	c8 01       	movw	r24, r16
    3438:	b7 01       	movw	r22, r14
    343a:	20 e0       	ldi	r18, 0x00	; 0
    343c:	30 e0       	ldi	r19, 0x00	; 0
    343e:	40 e0       	ldi	r20, 0x00	; 0
    3440:	5f e4       	ldi	r21, 0x4F	; 79
    3442:	0e 94 85 1b 	call	0x370a	; 0x370a <__subsf3>
    3446:	0e 94 77 1e 	call	0x3cee	; 0x3cee <__fixsfsi>
    344a:	9b 01       	movw	r18, r22
    344c:	ac 01       	movw	r20, r24
    344e:	20 50       	subi	r18, 0x00	; 0
    3450:	30 40       	sbci	r19, 0x00	; 0
    3452:	40 40       	sbci	r20, 0x00	; 0
    3454:	50 48       	sbci	r21, 0x80	; 128
    3456:	06 c0       	rjmp	.+12     	; 0x3464 <__fixunssfsi+0x4a>
    3458:	c8 01       	movw	r24, r16
    345a:	b7 01       	movw	r22, r14
    345c:	0e 94 77 1e 	call	0x3cee	; 0x3cee <__fixsfsi>
    3460:	9b 01       	movw	r18, r22
    3462:	ac 01       	movw	r20, r24
    3464:	b9 01       	movw	r22, r18
    3466:	ca 01       	movw	r24, r20
    3468:	1f 91       	pop	r17
    346a:	0f 91       	pop	r16
    346c:	ff 90       	pop	r15
    346e:	ef 90       	pop	r14
    3470:	08 95       	ret

00003472 <_fpadd_parts>:
    3472:	a0 e0       	ldi	r26, 0x00	; 0
    3474:	b0 e0       	ldi	r27, 0x00	; 0
    3476:	ef e3       	ldi	r30, 0x3F	; 63
    3478:	fa e1       	ldi	r31, 0x1A	; 26
    347a:	0c 94 24 21 	jmp	0x4248	; 0x4248 <__prologue_saves__>
    347e:	dc 01       	movw	r26, r24
    3480:	2b 01       	movw	r4, r22
    3482:	fa 01       	movw	r30, r20
    3484:	9c 91       	ld	r25, X
    3486:	92 30       	cpi	r25, 0x02	; 2
    3488:	08 f4       	brcc	.+2      	; 0x348c <_fpadd_parts+0x1a>
    348a:	39 c1       	rjmp	.+626    	; 0x36fe <_fpadd_parts+0x28c>
    348c:	eb 01       	movw	r28, r22
    348e:	88 81       	ld	r24, Y
    3490:	82 30       	cpi	r24, 0x02	; 2
    3492:	08 f4       	brcc	.+2      	; 0x3496 <_fpadd_parts+0x24>
    3494:	33 c1       	rjmp	.+614    	; 0x36fc <_fpadd_parts+0x28a>
    3496:	94 30       	cpi	r25, 0x04	; 4
    3498:	69 f4       	brne	.+26     	; 0x34b4 <_fpadd_parts+0x42>
    349a:	84 30       	cpi	r24, 0x04	; 4
    349c:	09 f0       	breq	.+2      	; 0x34a0 <_fpadd_parts+0x2e>
    349e:	2f c1       	rjmp	.+606    	; 0x36fe <_fpadd_parts+0x28c>
    34a0:	11 96       	adiw	r26, 0x01	; 1
    34a2:	9c 91       	ld	r25, X
    34a4:	11 97       	sbiw	r26, 0x01	; 1
    34a6:	89 81       	ldd	r24, Y+1	; 0x01
    34a8:	98 17       	cp	r25, r24
    34aa:	09 f4       	brne	.+2      	; 0x34ae <_fpadd_parts+0x3c>
    34ac:	28 c1       	rjmp	.+592    	; 0x36fe <_fpadd_parts+0x28c>
    34ae:	ab e5       	ldi	r26, 0x5B	; 91
    34b0:	b1 e0       	ldi	r27, 0x01	; 1
    34b2:	25 c1       	rjmp	.+586    	; 0x36fe <_fpadd_parts+0x28c>
    34b4:	84 30       	cpi	r24, 0x04	; 4
    34b6:	09 f4       	brne	.+2      	; 0x34ba <_fpadd_parts+0x48>
    34b8:	21 c1       	rjmp	.+578    	; 0x36fc <_fpadd_parts+0x28a>
    34ba:	82 30       	cpi	r24, 0x02	; 2
    34bc:	a9 f4       	brne	.+42     	; 0x34e8 <_fpadd_parts+0x76>
    34be:	92 30       	cpi	r25, 0x02	; 2
    34c0:	09 f0       	breq	.+2      	; 0x34c4 <_fpadd_parts+0x52>
    34c2:	1d c1       	rjmp	.+570    	; 0x36fe <_fpadd_parts+0x28c>
    34c4:	9a 01       	movw	r18, r20
    34c6:	ad 01       	movw	r20, r26
    34c8:	88 e0       	ldi	r24, 0x08	; 8
    34ca:	ea 01       	movw	r28, r20
    34cc:	09 90       	ld	r0, Y+
    34ce:	ae 01       	movw	r20, r28
    34d0:	e9 01       	movw	r28, r18
    34d2:	09 92       	st	Y+, r0
    34d4:	9e 01       	movw	r18, r28
    34d6:	81 50       	subi	r24, 0x01	; 1
    34d8:	c1 f7       	brne	.-16     	; 0x34ca <_fpadd_parts+0x58>
    34da:	e2 01       	movw	r28, r4
    34dc:	89 81       	ldd	r24, Y+1	; 0x01
    34de:	11 96       	adiw	r26, 0x01	; 1
    34e0:	9c 91       	ld	r25, X
    34e2:	89 23       	and	r24, r25
    34e4:	81 83       	std	Z+1, r24	; 0x01
    34e6:	08 c1       	rjmp	.+528    	; 0x36f8 <_fpadd_parts+0x286>
    34e8:	92 30       	cpi	r25, 0x02	; 2
    34ea:	09 f4       	brne	.+2      	; 0x34ee <_fpadd_parts+0x7c>
    34ec:	07 c1       	rjmp	.+526    	; 0x36fc <_fpadd_parts+0x28a>
    34ee:	12 96       	adiw	r26, 0x02	; 2
    34f0:	2d 90       	ld	r2, X+
    34f2:	3c 90       	ld	r3, X
    34f4:	13 97       	sbiw	r26, 0x03	; 3
    34f6:	eb 01       	movw	r28, r22
    34f8:	8a 81       	ldd	r24, Y+2	; 0x02
    34fa:	9b 81       	ldd	r25, Y+3	; 0x03
    34fc:	14 96       	adiw	r26, 0x04	; 4
    34fe:	ad 90       	ld	r10, X+
    3500:	bd 90       	ld	r11, X+
    3502:	cd 90       	ld	r12, X+
    3504:	dc 90       	ld	r13, X
    3506:	17 97       	sbiw	r26, 0x07	; 7
    3508:	ec 80       	ldd	r14, Y+4	; 0x04
    350a:	fd 80       	ldd	r15, Y+5	; 0x05
    350c:	0e 81       	ldd	r16, Y+6	; 0x06
    350e:	1f 81       	ldd	r17, Y+7	; 0x07
    3510:	91 01       	movw	r18, r2
    3512:	28 1b       	sub	r18, r24
    3514:	39 0b       	sbc	r19, r25
    3516:	b9 01       	movw	r22, r18
    3518:	37 ff       	sbrs	r19, 7
    351a:	04 c0       	rjmp	.+8      	; 0x3524 <_fpadd_parts+0xb2>
    351c:	66 27       	eor	r22, r22
    351e:	77 27       	eor	r23, r23
    3520:	62 1b       	sub	r22, r18
    3522:	73 0b       	sbc	r23, r19
    3524:	60 32       	cpi	r22, 0x20	; 32
    3526:	71 05       	cpc	r23, r1
    3528:	0c f0       	brlt	.+2      	; 0x352c <_fpadd_parts+0xba>
    352a:	61 c0       	rjmp	.+194    	; 0x35ee <_fpadd_parts+0x17c>
    352c:	12 16       	cp	r1, r18
    352e:	13 06       	cpc	r1, r19
    3530:	6c f5       	brge	.+90     	; 0x358c <_fpadd_parts+0x11a>
    3532:	37 01       	movw	r6, r14
    3534:	48 01       	movw	r8, r16
    3536:	06 2e       	mov	r0, r22
    3538:	04 c0       	rjmp	.+8      	; 0x3542 <_fpadd_parts+0xd0>
    353a:	96 94       	lsr	r9
    353c:	87 94       	ror	r8
    353e:	77 94       	ror	r7
    3540:	67 94       	ror	r6
    3542:	0a 94       	dec	r0
    3544:	d2 f7       	brpl	.-12     	; 0x353a <_fpadd_parts+0xc8>
    3546:	21 e0       	ldi	r18, 0x01	; 1
    3548:	30 e0       	ldi	r19, 0x00	; 0
    354a:	40 e0       	ldi	r20, 0x00	; 0
    354c:	50 e0       	ldi	r21, 0x00	; 0
    354e:	04 c0       	rjmp	.+8      	; 0x3558 <_fpadd_parts+0xe6>
    3550:	22 0f       	add	r18, r18
    3552:	33 1f       	adc	r19, r19
    3554:	44 1f       	adc	r20, r20
    3556:	55 1f       	adc	r21, r21
    3558:	6a 95       	dec	r22
    355a:	d2 f7       	brpl	.-12     	; 0x3550 <_fpadd_parts+0xde>
    355c:	21 50       	subi	r18, 0x01	; 1
    355e:	30 40       	sbci	r19, 0x00	; 0
    3560:	40 40       	sbci	r20, 0x00	; 0
    3562:	50 40       	sbci	r21, 0x00	; 0
    3564:	2e 21       	and	r18, r14
    3566:	3f 21       	and	r19, r15
    3568:	40 23       	and	r20, r16
    356a:	51 23       	and	r21, r17
    356c:	21 15       	cp	r18, r1
    356e:	31 05       	cpc	r19, r1
    3570:	41 05       	cpc	r20, r1
    3572:	51 05       	cpc	r21, r1
    3574:	21 f0       	breq	.+8      	; 0x357e <_fpadd_parts+0x10c>
    3576:	21 e0       	ldi	r18, 0x01	; 1
    3578:	30 e0       	ldi	r19, 0x00	; 0
    357a:	40 e0       	ldi	r20, 0x00	; 0
    357c:	50 e0       	ldi	r21, 0x00	; 0
    357e:	79 01       	movw	r14, r18
    3580:	8a 01       	movw	r16, r20
    3582:	e6 28       	or	r14, r6
    3584:	f7 28       	or	r15, r7
    3586:	08 29       	or	r16, r8
    3588:	19 29       	or	r17, r9
    358a:	3c c0       	rjmp	.+120    	; 0x3604 <_fpadd_parts+0x192>
    358c:	23 2b       	or	r18, r19
    358e:	d1 f1       	breq	.+116    	; 0x3604 <_fpadd_parts+0x192>
    3590:	26 0e       	add	r2, r22
    3592:	37 1e       	adc	r3, r23
    3594:	35 01       	movw	r6, r10
    3596:	46 01       	movw	r8, r12
    3598:	06 2e       	mov	r0, r22
    359a:	04 c0       	rjmp	.+8      	; 0x35a4 <_fpadd_parts+0x132>
    359c:	96 94       	lsr	r9
    359e:	87 94       	ror	r8
    35a0:	77 94       	ror	r7
    35a2:	67 94       	ror	r6
    35a4:	0a 94       	dec	r0
    35a6:	d2 f7       	brpl	.-12     	; 0x359c <_fpadd_parts+0x12a>
    35a8:	21 e0       	ldi	r18, 0x01	; 1
    35aa:	30 e0       	ldi	r19, 0x00	; 0
    35ac:	40 e0       	ldi	r20, 0x00	; 0
    35ae:	50 e0       	ldi	r21, 0x00	; 0
    35b0:	04 c0       	rjmp	.+8      	; 0x35ba <_fpadd_parts+0x148>
    35b2:	22 0f       	add	r18, r18
    35b4:	33 1f       	adc	r19, r19
    35b6:	44 1f       	adc	r20, r20
    35b8:	55 1f       	adc	r21, r21
    35ba:	6a 95       	dec	r22
    35bc:	d2 f7       	brpl	.-12     	; 0x35b2 <_fpadd_parts+0x140>
    35be:	21 50       	subi	r18, 0x01	; 1
    35c0:	30 40       	sbci	r19, 0x00	; 0
    35c2:	40 40       	sbci	r20, 0x00	; 0
    35c4:	50 40       	sbci	r21, 0x00	; 0
    35c6:	2a 21       	and	r18, r10
    35c8:	3b 21       	and	r19, r11
    35ca:	4c 21       	and	r20, r12
    35cc:	5d 21       	and	r21, r13
    35ce:	21 15       	cp	r18, r1
    35d0:	31 05       	cpc	r19, r1
    35d2:	41 05       	cpc	r20, r1
    35d4:	51 05       	cpc	r21, r1
    35d6:	21 f0       	breq	.+8      	; 0x35e0 <_fpadd_parts+0x16e>
    35d8:	21 e0       	ldi	r18, 0x01	; 1
    35da:	30 e0       	ldi	r19, 0x00	; 0
    35dc:	40 e0       	ldi	r20, 0x00	; 0
    35de:	50 e0       	ldi	r21, 0x00	; 0
    35e0:	59 01       	movw	r10, r18
    35e2:	6a 01       	movw	r12, r20
    35e4:	a6 28       	or	r10, r6
    35e6:	b7 28       	or	r11, r7
    35e8:	c8 28       	or	r12, r8
    35ea:	d9 28       	or	r13, r9
    35ec:	0b c0       	rjmp	.+22     	; 0x3604 <_fpadd_parts+0x192>
    35ee:	82 15       	cp	r24, r2
    35f0:	93 05       	cpc	r25, r3
    35f2:	2c f0       	brlt	.+10     	; 0x35fe <_fpadd_parts+0x18c>
    35f4:	1c 01       	movw	r2, r24
    35f6:	aa 24       	eor	r10, r10
    35f8:	bb 24       	eor	r11, r11
    35fa:	65 01       	movw	r12, r10
    35fc:	03 c0       	rjmp	.+6      	; 0x3604 <_fpadd_parts+0x192>
    35fe:	ee 24       	eor	r14, r14
    3600:	ff 24       	eor	r15, r15
    3602:	87 01       	movw	r16, r14
    3604:	11 96       	adiw	r26, 0x01	; 1
    3606:	9c 91       	ld	r25, X
    3608:	d2 01       	movw	r26, r4
    360a:	11 96       	adiw	r26, 0x01	; 1
    360c:	8c 91       	ld	r24, X
    360e:	98 17       	cp	r25, r24
    3610:	09 f4       	brne	.+2      	; 0x3614 <_fpadd_parts+0x1a2>
    3612:	45 c0       	rjmp	.+138    	; 0x369e <_fpadd_parts+0x22c>
    3614:	99 23       	and	r25, r25
    3616:	39 f0       	breq	.+14     	; 0x3626 <_fpadd_parts+0x1b4>
    3618:	a8 01       	movw	r20, r16
    361a:	97 01       	movw	r18, r14
    361c:	2a 19       	sub	r18, r10
    361e:	3b 09       	sbc	r19, r11
    3620:	4c 09       	sbc	r20, r12
    3622:	5d 09       	sbc	r21, r13
    3624:	06 c0       	rjmp	.+12     	; 0x3632 <_fpadd_parts+0x1c0>
    3626:	a6 01       	movw	r20, r12
    3628:	95 01       	movw	r18, r10
    362a:	2e 19       	sub	r18, r14
    362c:	3f 09       	sbc	r19, r15
    362e:	40 0b       	sbc	r20, r16
    3630:	51 0b       	sbc	r21, r17
    3632:	57 fd       	sbrc	r21, 7
    3634:	08 c0       	rjmp	.+16     	; 0x3646 <_fpadd_parts+0x1d4>
    3636:	11 82       	std	Z+1, r1	; 0x01
    3638:	33 82       	std	Z+3, r3	; 0x03
    363a:	22 82       	std	Z+2, r2	; 0x02
    363c:	24 83       	std	Z+4, r18	; 0x04
    363e:	35 83       	std	Z+5, r19	; 0x05
    3640:	46 83       	std	Z+6, r20	; 0x06
    3642:	57 83       	std	Z+7, r21	; 0x07
    3644:	1d c0       	rjmp	.+58     	; 0x3680 <_fpadd_parts+0x20e>
    3646:	81 e0       	ldi	r24, 0x01	; 1
    3648:	81 83       	std	Z+1, r24	; 0x01
    364a:	33 82       	std	Z+3, r3	; 0x03
    364c:	22 82       	std	Z+2, r2	; 0x02
    364e:	88 27       	eor	r24, r24
    3650:	99 27       	eor	r25, r25
    3652:	dc 01       	movw	r26, r24
    3654:	82 1b       	sub	r24, r18
    3656:	93 0b       	sbc	r25, r19
    3658:	a4 0b       	sbc	r26, r20
    365a:	b5 0b       	sbc	r27, r21
    365c:	84 83       	std	Z+4, r24	; 0x04
    365e:	95 83       	std	Z+5, r25	; 0x05
    3660:	a6 83       	std	Z+6, r26	; 0x06
    3662:	b7 83       	std	Z+7, r27	; 0x07
    3664:	0d c0       	rjmp	.+26     	; 0x3680 <_fpadd_parts+0x20e>
    3666:	22 0f       	add	r18, r18
    3668:	33 1f       	adc	r19, r19
    366a:	44 1f       	adc	r20, r20
    366c:	55 1f       	adc	r21, r21
    366e:	24 83       	std	Z+4, r18	; 0x04
    3670:	35 83       	std	Z+5, r19	; 0x05
    3672:	46 83       	std	Z+6, r20	; 0x06
    3674:	57 83       	std	Z+7, r21	; 0x07
    3676:	82 81       	ldd	r24, Z+2	; 0x02
    3678:	93 81       	ldd	r25, Z+3	; 0x03
    367a:	01 97       	sbiw	r24, 0x01	; 1
    367c:	93 83       	std	Z+3, r25	; 0x03
    367e:	82 83       	std	Z+2, r24	; 0x02
    3680:	24 81       	ldd	r18, Z+4	; 0x04
    3682:	35 81       	ldd	r19, Z+5	; 0x05
    3684:	46 81       	ldd	r20, Z+6	; 0x06
    3686:	57 81       	ldd	r21, Z+7	; 0x07
    3688:	da 01       	movw	r26, r20
    368a:	c9 01       	movw	r24, r18
    368c:	01 97       	sbiw	r24, 0x01	; 1
    368e:	a1 09       	sbc	r26, r1
    3690:	b1 09       	sbc	r27, r1
    3692:	8f 5f       	subi	r24, 0xFF	; 255
    3694:	9f 4f       	sbci	r25, 0xFF	; 255
    3696:	af 4f       	sbci	r26, 0xFF	; 255
    3698:	bf 43       	sbci	r27, 0x3F	; 63
    369a:	28 f3       	brcs	.-54     	; 0x3666 <_fpadd_parts+0x1f4>
    369c:	0b c0       	rjmp	.+22     	; 0x36b4 <_fpadd_parts+0x242>
    369e:	91 83       	std	Z+1, r25	; 0x01
    36a0:	33 82       	std	Z+3, r3	; 0x03
    36a2:	22 82       	std	Z+2, r2	; 0x02
    36a4:	ea 0c       	add	r14, r10
    36a6:	fb 1c       	adc	r15, r11
    36a8:	0c 1d       	adc	r16, r12
    36aa:	1d 1d       	adc	r17, r13
    36ac:	e4 82       	std	Z+4, r14	; 0x04
    36ae:	f5 82       	std	Z+5, r15	; 0x05
    36b0:	06 83       	std	Z+6, r16	; 0x06
    36b2:	17 83       	std	Z+7, r17	; 0x07
    36b4:	83 e0       	ldi	r24, 0x03	; 3
    36b6:	80 83       	st	Z, r24
    36b8:	24 81       	ldd	r18, Z+4	; 0x04
    36ba:	35 81       	ldd	r19, Z+5	; 0x05
    36bc:	46 81       	ldd	r20, Z+6	; 0x06
    36be:	57 81       	ldd	r21, Z+7	; 0x07
    36c0:	57 ff       	sbrs	r21, 7
    36c2:	1a c0       	rjmp	.+52     	; 0x36f8 <_fpadd_parts+0x286>
    36c4:	c9 01       	movw	r24, r18
    36c6:	aa 27       	eor	r26, r26
    36c8:	97 fd       	sbrc	r25, 7
    36ca:	a0 95       	com	r26
    36cc:	ba 2f       	mov	r27, r26
    36ce:	81 70       	andi	r24, 0x01	; 1
    36d0:	90 70       	andi	r25, 0x00	; 0
    36d2:	a0 70       	andi	r26, 0x00	; 0
    36d4:	b0 70       	andi	r27, 0x00	; 0
    36d6:	56 95       	lsr	r21
    36d8:	47 95       	ror	r20
    36da:	37 95       	ror	r19
    36dc:	27 95       	ror	r18
    36de:	82 2b       	or	r24, r18
    36e0:	93 2b       	or	r25, r19
    36e2:	a4 2b       	or	r26, r20
    36e4:	b5 2b       	or	r27, r21
    36e6:	84 83       	std	Z+4, r24	; 0x04
    36e8:	95 83       	std	Z+5, r25	; 0x05
    36ea:	a6 83       	std	Z+6, r26	; 0x06
    36ec:	b7 83       	std	Z+7, r27	; 0x07
    36ee:	82 81       	ldd	r24, Z+2	; 0x02
    36f0:	93 81       	ldd	r25, Z+3	; 0x03
    36f2:	01 96       	adiw	r24, 0x01	; 1
    36f4:	93 83       	std	Z+3, r25	; 0x03
    36f6:	82 83       	std	Z+2, r24	; 0x02
    36f8:	df 01       	movw	r26, r30
    36fa:	01 c0       	rjmp	.+2      	; 0x36fe <_fpadd_parts+0x28c>
    36fc:	d2 01       	movw	r26, r4
    36fe:	cd 01       	movw	r24, r26
    3700:	cd b7       	in	r28, 0x3d	; 61
    3702:	de b7       	in	r29, 0x3e	; 62
    3704:	e2 e1       	ldi	r30, 0x12	; 18
    3706:	0c 94 40 21 	jmp	0x4280	; 0x4280 <__epilogue_restores__>

0000370a <__subsf3>:
    370a:	a0 e2       	ldi	r26, 0x20	; 32
    370c:	b0 e0       	ldi	r27, 0x00	; 0
    370e:	eb e8       	ldi	r30, 0x8B	; 139
    3710:	fb e1       	ldi	r31, 0x1B	; 27
    3712:	0c 94 30 21 	jmp	0x4260	; 0x4260 <__prologue_saves__+0x18>
    3716:	69 83       	std	Y+1, r22	; 0x01
    3718:	7a 83       	std	Y+2, r23	; 0x02
    371a:	8b 83       	std	Y+3, r24	; 0x03
    371c:	9c 83       	std	Y+4, r25	; 0x04
    371e:	2d 83       	std	Y+5, r18	; 0x05
    3720:	3e 83       	std	Y+6, r19	; 0x06
    3722:	4f 83       	std	Y+7, r20	; 0x07
    3724:	58 87       	std	Y+8, r21	; 0x08
    3726:	e9 e0       	ldi	r30, 0x09	; 9
    3728:	ee 2e       	mov	r14, r30
    372a:	f1 2c       	mov	r15, r1
    372c:	ec 0e       	add	r14, r28
    372e:	fd 1e       	adc	r15, r29
    3730:	ce 01       	movw	r24, r28
    3732:	01 96       	adiw	r24, 0x01	; 1
    3734:	b7 01       	movw	r22, r14
    3736:	0e 94 ef 1f 	call	0x3fde	; 0x3fde <__unpack_f>
    373a:	8e 01       	movw	r16, r28
    373c:	0f 5e       	subi	r16, 0xEF	; 239
    373e:	1f 4f       	sbci	r17, 0xFF	; 255
    3740:	ce 01       	movw	r24, r28
    3742:	05 96       	adiw	r24, 0x05	; 5
    3744:	b8 01       	movw	r22, r16
    3746:	0e 94 ef 1f 	call	0x3fde	; 0x3fde <__unpack_f>
    374a:	8a 89       	ldd	r24, Y+18	; 0x12
    374c:	91 e0       	ldi	r25, 0x01	; 1
    374e:	89 27       	eor	r24, r25
    3750:	8a 8b       	std	Y+18, r24	; 0x12
    3752:	c7 01       	movw	r24, r14
    3754:	b8 01       	movw	r22, r16
    3756:	ae 01       	movw	r20, r28
    3758:	47 5e       	subi	r20, 0xE7	; 231
    375a:	5f 4f       	sbci	r21, 0xFF	; 255
    375c:	0e 94 39 1a 	call	0x3472	; 0x3472 <_fpadd_parts>
    3760:	0e 94 1a 1f 	call	0x3e34	; 0x3e34 <__pack_f>
    3764:	a0 96       	adiw	r28, 0x20	; 32
    3766:	e6 e0       	ldi	r30, 0x06	; 6
    3768:	0c 94 4c 21 	jmp	0x4298	; 0x4298 <__epilogue_restores__+0x18>

0000376c <__addsf3>:
    376c:	a0 e2       	ldi	r26, 0x20	; 32
    376e:	b0 e0       	ldi	r27, 0x00	; 0
    3770:	ec eb       	ldi	r30, 0xBC	; 188
    3772:	fb e1       	ldi	r31, 0x1B	; 27
    3774:	0c 94 30 21 	jmp	0x4260	; 0x4260 <__prologue_saves__+0x18>
    3778:	69 83       	std	Y+1, r22	; 0x01
    377a:	7a 83       	std	Y+2, r23	; 0x02
    377c:	8b 83       	std	Y+3, r24	; 0x03
    377e:	9c 83       	std	Y+4, r25	; 0x04
    3780:	2d 83       	std	Y+5, r18	; 0x05
    3782:	3e 83       	std	Y+6, r19	; 0x06
    3784:	4f 83       	std	Y+7, r20	; 0x07
    3786:	58 87       	std	Y+8, r21	; 0x08
    3788:	f9 e0       	ldi	r31, 0x09	; 9
    378a:	ef 2e       	mov	r14, r31
    378c:	f1 2c       	mov	r15, r1
    378e:	ec 0e       	add	r14, r28
    3790:	fd 1e       	adc	r15, r29
    3792:	ce 01       	movw	r24, r28
    3794:	01 96       	adiw	r24, 0x01	; 1
    3796:	b7 01       	movw	r22, r14
    3798:	0e 94 ef 1f 	call	0x3fde	; 0x3fde <__unpack_f>
    379c:	8e 01       	movw	r16, r28
    379e:	0f 5e       	subi	r16, 0xEF	; 239
    37a0:	1f 4f       	sbci	r17, 0xFF	; 255
    37a2:	ce 01       	movw	r24, r28
    37a4:	05 96       	adiw	r24, 0x05	; 5
    37a6:	b8 01       	movw	r22, r16
    37a8:	0e 94 ef 1f 	call	0x3fde	; 0x3fde <__unpack_f>
    37ac:	c7 01       	movw	r24, r14
    37ae:	b8 01       	movw	r22, r16
    37b0:	ae 01       	movw	r20, r28
    37b2:	47 5e       	subi	r20, 0xE7	; 231
    37b4:	5f 4f       	sbci	r21, 0xFF	; 255
    37b6:	0e 94 39 1a 	call	0x3472	; 0x3472 <_fpadd_parts>
    37ba:	0e 94 1a 1f 	call	0x3e34	; 0x3e34 <__pack_f>
    37be:	a0 96       	adiw	r28, 0x20	; 32
    37c0:	e6 e0       	ldi	r30, 0x06	; 6
    37c2:	0c 94 4c 21 	jmp	0x4298	; 0x4298 <__epilogue_restores__+0x18>

000037c6 <__mulsf3>:
    37c6:	a0 e2       	ldi	r26, 0x20	; 32
    37c8:	b0 e0       	ldi	r27, 0x00	; 0
    37ca:	e9 ee       	ldi	r30, 0xE9	; 233
    37cc:	fb e1       	ldi	r31, 0x1B	; 27
    37ce:	0c 94 24 21 	jmp	0x4248	; 0x4248 <__prologue_saves__>
    37d2:	69 83       	std	Y+1, r22	; 0x01
    37d4:	7a 83       	std	Y+2, r23	; 0x02
    37d6:	8b 83       	std	Y+3, r24	; 0x03
    37d8:	9c 83       	std	Y+4, r25	; 0x04
    37da:	2d 83       	std	Y+5, r18	; 0x05
    37dc:	3e 83       	std	Y+6, r19	; 0x06
    37de:	4f 83       	std	Y+7, r20	; 0x07
    37e0:	58 87       	std	Y+8, r21	; 0x08
    37e2:	ce 01       	movw	r24, r28
    37e4:	01 96       	adiw	r24, 0x01	; 1
    37e6:	be 01       	movw	r22, r28
    37e8:	67 5f       	subi	r22, 0xF7	; 247
    37ea:	7f 4f       	sbci	r23, 0xFF	; 255
    37ec:	0e 94 ef 1f 	call	0x3fde	; 0x3fde <__unpack_f>
    37f0:	ce 01       	movw	r24, r28
    37f2:	05 96       	adiw	r24, 0x05	; 5
    37f4:	be 01       	movw	r22, r28
    37f6:	6f 5e       	subi	r22, 0xEF	; 239
    37f8:	7f 4f       	sbci	r23, 0xFF	; 255
    37fa:	0e 94 ef 1f 	call	0x3fde	; 0x3fde <__unpack_f>
    37fe:	99 85       	ldd	r25, Y+9	; 0x09
    3800:	92 30       	cpi	r25, 0x02	; 2
    3802:	88 f0       	brcs	.+34     	; 0x3826 <__mulsf3+0x60>
    3804:	89 89       	ldd	r24, Y+17	; 0x11
    3806:	82 30       	cpi	r24, 0x02	; 2
    3808:	c8 f0       	brcs	.+50     	; 0x383c <__mulsf3+0x76>
    380a:	94 30       	cpi	r25, 0x04	; 4
    380c:	19 f4       	brne	.+6      	; 0x3814 <__mulsf3+0x4e>
    380e:	82 30       	cpi	r24, 0x02	; 2
    3810:	51 f4       	brne	.+20     	; 0x3826 <__mulsf3+0x60>
    3812:	04 c0       	rjmp	.+8      	; 0x381c <__mulsf3+0x56>
    3814:	84 30       	cpi	r24, 0x04	; 4
    3816:	29 f4       	brne	.+10     	; 0x3822 <__mulsf3+0x5c>
    3818:	92 30       	cpi	r25, 0x02	; 2
    381a:	81 f4       	brne	.+32     	; 0x383c <__mulsf3+0x76>
    381c:	8b e5       	ldi	r24, 0x5B	; 91
    381e:	91 e0       	ldi	r25, 0x01	; 1
    3820:	c6 c0       	rjmp	.+396    	; 0x39ae <__mulsf3+0x1e8>
    3822:	92 30       	cpi	r25, 0x02	; 2
    3824:	49 f4       	brne	.+18     	; 0x3838 <__mulsf3+0x72>
    3826:	20 e0       	ldi	r18, 0x00	; 0
    3828:	9a 85       	ldd	r25, Y+10	; 0x0a
    382a:	8a 89       	ldd	r24, Y+18	; 0x12
    382c:	98 13       	cpse	r25, r24
    382e:	21 e0       	ldi	r18, 0x01	; 1
    3830:	2a 87       	std	Y+10, r18	; 0x0a
    3832:	ce 01       	movw	r24, r28
    3834:	09 96       	adiw	r24, 0x09	; 9
    3836:	bb c0       	rjmp	.+374    	; 0x39ae <__mulsf3+0x1e8>
    3838:	82 30       	cpi	r24, 0x02	; 2
    383a:	49 f4       	brne	.+18     	; 0x384e <__mulsf3+0x88>
    383c:	20 e0       	ldi	r18, 0x00	; 0
    383e:	9a 85       	ldd	r25, Y+10	; 0x0a
    3840:	8a 89       	ldd	r24, Y+18	; 0x12
    3842:	98 13       	cpse	r25, r24
    3844:	21 e0       	ldi	r18, 0x01	; 1
    3846:	2a 8b       	std	Y+18, r18	; 0x12
    3848:	ce 01       	movw	r24, r28
    384a:	41 96       	adiw	r24, 0x11	; 17
    384c:	b0 c0       	rjmp	.+352    	; 0x39ae <__mulsf3+0x1e8>
    384e:	2d 84       	ldd	r2, Y+13	; 0x0d
    3850:	3e 84       	ldd	r3, Y+14	; 0x0e
    3852:	4f 84       	ldd	r4, Y+15	; 0x0f
    3854:	58 88       	ldd	r5, Y+16	; 0x10
    3856:	6d 88       	ldd	r6, Y+21	; 0x15
    3858:	7e 88       	ldd	r7, Y+22	; 0x16
    385a:	8f 88       	ldd	r8, Y+23	; 0x17
    385c:	98 8c       	ldd	r9, Y+24	; 0x18
    385e:	ee 24       	eor	r14, r14
    3860:	ff 24       	eor	r15, r15
    3862:	87 01       	movw	r16, r14
    3864:	aa 24       	eor	r10, r10
    3866:	bb 24       	eor	r11, r11
    3868:	65 01       	movw	r12, r10
    386a:	40 e0       	ldi	r20, 0x00	; 0
    386c:	50 e0       	ldi	r21, 0x00	; 0
    386e:	60 e0       	ldi	r22, 0x00	; 0
    3870:	70 e0       	ldi	r23, 0x00	; 0
    3872:	e0 e0       	ldi	r30, 0x00	; 0
    3874:	f0 e0       	ldi	r31, 0x00	; 0
    3876:	c1 01       	movw	r24, r2
    3878:	81 70       	andi	r24, 0x01	; 1
    387a:	90 70       	andi	r25, 0x00	; 0
    387c:	89 2b       	or	r24, r25
    387e:	e9 f0       	breq	.+58     	; 0x38ba <__mulsf3+0xf4>
    3880:	e6 0c       	add	r14, r6
    3882:	f7 1c       	adc	r15, r7
    3884:	08 1d       	adc	r16, r8
    3886:	19 1d       	adc	r17, r9
    3888:	9a 01       	movw	r18, r20
    388a:	ab 01       	movw	r20, r22
    388c:	2a 0d       	add	r18, r10
    388e:	3b 1d       	adc	r19, r11
    3890:	4c 1d       	adc	r20, r12
    3892:	5d 1d       	adc	r21, r13
    3894:	80 e0       	ldi	r24, 0x00	; 0
    3896:	90 e0       	ldi	r25, 0x00	; 0
    3898:	a0 e0       	ldi	r26, 0x00	; 0
    389a:	b0 e0       	ldi	r27, 0x00	; 0
    389c:	e6 14       	cp	r14, r6
    389e:	f7 04       	cpc	r15, r7
    38a0:	08 05       	cpc	r16, r8
    38a2:	19 05       	cpc	r17, r9
    38a4:	20 f4       	brcc	.+8      	; 0x38ae <__mulsf3+0xe8>
    38a6:	81 e0       	ldi	r24, 0x01	; 1
    38a8:	90 e0       	ldi	r25, 0x00	; 0
    38aa:	a0 e0       	ldi	r26, 0x00	; 0
    38ac:	b0 e0       	ldi	r27, 0x00	; 0
    38ae:	ba 01       	movw	r22, r20
    38b0:	a9 01       	movw	r20, r18
    38b2:	48 0f       	add	r20, r24
    38b4:	59 1f       	adc	r21, r25
    38b6:	6a 1f       	adc	r22, r26
    38b8:	7b 1f       	adc	r23, r27
    38ba:	aa 0c       	add	r10, r10
    38bc:	bb 1c       	adc	r11, r11
    38be:	cc 1c       	adc	r12, r12
    38c0:	dd 1c       	adc	r13, r13
    38c2:	97 fe       	sbrs	r9, 7
    38c4:	08 c0       	rjmp	.+16     	; 0x38d6 <__mulsf3+0x110>
    38c6:	81 e0       	ldi	r24, 0x01	; 1
    38c8:	90 e0       	ldi	r25, 0x00	; 0
    38ca:	a0 e0       	ldi	r26, 0x00	; 0
    38cc:	b0 e0       	ldi	r27, 0x00	; 0
    38ce:	a8 2a       	or	r10, r24
    38d0:	b9 2a       	or	r11, r25
    38d2:	ca 2a       	or	r12, r26
    38d4:	db 2a       	or	r13, r27
    38d6:	31 96       	adiw	r30, 0x01	; 1
    38d8:	e0 32       	cpi	r30, 0x20	; 32
    38da:	f1 05       	cpc	r31, r1
    38dc:	49 f0       	breq	.+18     	; 0x38f0 <__mulsf3+0x12a>
    38de:	66 0c       	add	r6, r6
    38e0:	77 1c       	adc	r7, r7
    38e2:	88 1c       	adc	r8, r8
    38e4:	99 1c       	adc	r9, r9
    38e6:	56 94       	lsr	r5
    38e8:	47 94       	ror	r4
    38ea:	37 94       	ror	r3
    38ec:	27 94       	ror	r2
    38ee:	c3 cf       	rjmp	.-122    	; 0x3876 <__mulsf3+0xb0>
    38f0:	fa 85       	ldd	r31, Y+10	; 0x0a
    38f2:	ea 89       	ldd	r30, Y+18	; 0x12
    38f4:	2b 89       	ldd	r18, Y+19	; 0x13
    38f6:	3c 89       	ldd	r19, Y+20	; 0x14
    38f8:	8b 85       	ldd	r24, Y+11	; 0x0b
    38fa:	9c 85       	ldd	r25, Y+12	; 0x0c
    38fc:	28 0f       	add	r18, r24
    38fe:	39 1f       	adc	r19, r25
    3900:	2e 5f       	subi	r18, 0xFE	; 254
    3902:	3f 4f       	sbci	r19, 0xFF	; 255
    3904:	17 c0       	rjmp	.+46     	; 0x3934 <__mulsf3+0x16e>
    3906:	ca 01       	movw	r24, r20
    3908:	81 70       	andi	r24, 0x01	; 1
    390a:	90 70       	andi	r25, 0x00	; 0
    390c:	89 2b       	or	r24, r25
    390e:	61 f0       	breq	.+24     	; 0x3928 <__mulsf3+0x162>
    3910:	16 95       	lsr	r17
    3912:	07 95       	ror	r16
    3914:	f7 94       	ror	r15
    3916:	e7 94       	ror	r14
    3918:	80 e0       	ldi	r24, 0x00	; 0
    391a:	90 e0       	ldi	r25, 0x00	; 0
    391c:	a0 e0       	ldi	r26, 0x00	; 0
    391e:	b0 e8       	ldi	r27, 0x80	; 128
    3920:	e8 2a       	or	r14, r24
    3922:	f9 2a       	or	r15, r25
    3924:	0a 2b       	or	r16, r26
    3926:	1b 2b       	or	r17, r27
    3928:	76 95       	lsr	r23
    392a:	67 95       	ror	r22
    392c:	57 95       	ror	r21
    392e:	47 95       	ror	r20
    3930:	2f 5f       	subi	r18, 0xFF	; 255
    3932:	3f 4f       	sbci	r19, 0xFF	; 255
    3934:	77 fd       	sbrc	r23, 7
    3936:	e7 cf       	rjmp	.-50     	; 0x3906 <__mulsf3+0x140>
    3938:	0c c0       	rjmp	.+24     	; 0x3952 <__mulsf3+0x18c>
    393a:	44 0f       	add	r20, r20
    393c:	55 1f       	adc	r21, r21
    393e:	66 1f       	adc	r22, r22
    3940:	77 1f       	adc	r23, r23
    3942:	17 fd       	sbrc	r17, 7
    3944:	41 60       	ori	r20, 0x01	; 1
    3946:	ee 0c       	add	r14, r14
    3948:	ff 1c       	adc	r15, r15
    394a:	00 1f       	adc	r16, r16
    394c:	11 1f       	adc	r17, r17
    394e:	21 50       	subi	r18, 0x01	; 1
    3950:	30 40       	sbci	r19, 0x00	; 0
    3952:	40 30       	cpi	r20, 0x00	; 0
    3954:	90 e0       	ldi	r25, 0x00	; 0
    3956:	59 07       	cpc	r21, r25
    3958:	90 e0       	ldi	r25, 0x00	; 0
    395a:	69 07       	cpc	r22, r25
    395c:	90 e4       	ldi	r25, 0x40	; 64
    395e:	79 07       	cpc	r23, r25
    3960:	60 f3       	brcs	.-40     	; 0x393a <__mulsf3+0x174>
    3962:	2b 8f       	std	Y+27, r18	; 0x1b
    3964:	3c 8f       	std	Y+28, r19	; 0x1c
    3966:	db 01       	movw	r26, r22
    3968:	ca 01       	movw	r24, r20
    396a:	8f 77       	andi	r24, 0x7F	; 127
    396c:	90 70       	andi	r25, 0x00	; 0
    396e:	a0 70       	andi	r26, 0x00	; 0
    3970:	b0 70       	andi	r27, 0x00	; 0
    3972:	80 34       	cpi	r24, 0x40	; 64
    3974:	91 05       	cpc	r25, r1
    3976:	a1 05       	cpc	r26, r1
    3978:	b1 05       	cpc	r27, r1
    397a:	61 f4       	brne	.+24     	; 0x3994 <__mulsf3+0x1ce>
    397c:	47 fd       	sbrc	r20, 7
    397e:	0a c0       	rjmp	.+20     	; 0x3994 <__mulsf3+0x1ce>
    3980:	e1 14       	cp	r14, r1
    3982:	f1 04       	cpc	r15, r1
    3984:	01 05       	cpc	r16, r1
    3986:	11 05       	cpc	r17, r1
    3988:	29 f0       	breq	.+10     	; 0x3994 <__mulsf3+0x1ce>
    398a:	40 5c       	subi	r20, 0xC0	; 192
    398c:	5f 4f       	sbci	r21, 0xFF	; 255
    398e:	6f 4f       	sbci	r22, 0xFF	; 255
    3990:	7f 4f       	sbci	r23, 0xFF	; 255
    3992:	40 78       	andi	r20, 0x80	; 128
    3994:	1a 8e       	std	Y+26, r1	; 0x1a
    3996:	fe 17       	cp	r31, r30
    3998:	11 f0       	breq	.+4      	; 0x399e <__mulsf3+0x1d8>
    399a:	81 e0       	ldi	r24, 0x01	; 1
    399c:	8a 8f       	std	Y+26, r24	; 0x1a
    399e:	4d 8f       	std	Y+29, r20	; 0x1d
    39a0:	5e 8f       	std	Y+30, r21	; 0x1e
    39a2:	6f 8f       	std	Y+31, r22	; 0x1f
    39a4:	78 a3       	std	Y+32, r23	; 0x20
    39a6:	83 e0       	ldi	r24, 0x03	; 3
    39a8:	89 8f       	std	Y+25, r24	; 0x19
    39aa:	ce 01       	movw	r24, r28
    39ac:	49 96       	adiw	r24, 0x19	; 25
    39ae:	0e 94 1a 1f 	call	0x3e34	; 0x3e34 <__pack_f>
    39b2:	a0 96       	adiw	r28, 0x20	; 32
    39b4:	e2 e1       	ldi	r30, 0x12	; 18
    39b6:	0c 94 40 21 	jmp	0x4280	; 0x4280 <__epilogue_restores__>

000039ba <__divsf3>:
    39ba:	a8 e1       	ldi	r26, 0x18	; 24
    39bc:	b0 e0       	ldi	r27, 0x00	; 0
    39be:	e3 ee       	ldi	r30, 0xE3	; 227
    39c0:	fc e1       	ldi	r31, 0x1C	; 28
    39c2:	0c 94 2c 21 	jmp	0x4258	; 0x4258 <__prologue_saves__+0x10>
    39c6:	69 83       	std	Y+1, r22	; 0x01
    39c8:	7a 83       	std	Y+2, r23	; 0x02
    39ca:	8b 83       	std	Y+3, r24	; 0x03
    39cc:	9c 83       	std	Y+4, r25	; 0x04
    39ce:	2d 83       	std	Y+5, r18	; 0x05
    39d0:	3e 83       	std	Y+6, r19	; 0x06
    39d2:	4f 83       	std	Y+7, r20	; 0x07
    39d4:	58 87       	std	Y+8, r21	; 0x08
    39d6:	b9 e0       	ldi	r27, 0x09	; 9
    39d8:	eb 2e       	mov	r14, r27
    39da:	f1 2c       	mov	r15, r1
    39dc:	ec 0e       	add	r14, r28
    39de:	fd 1e       	adc	r15, r29
    39e0:	ce 01       	movw	r24, r28
    39e2:	01 96       	adiw	r24, 0x01	; 1
    39e4:	b7 01       	movw	r22, r14
    39e6:	0e 94 ef 1f 	call	0x3fde	; 0x3fde <__unpack_f>
    39ea:	8e 01       	movw	r16, r28
    39ec:	0f 5e       	subi	r16, 0xEF	; 239
    39ee:	1f 4f       	sbci	r17, 0xFF	; 255
    39f0:	ce 01       	movw	r24, r28
    39f2:	05 96       	adiw	r24, 0x05	; 5
    39f4:	b8 01       	movw	r22, r16
    39f6:	0e 94 ef 1f 	call	0x3fde	; 0x3fde <__unpack_f>
    39fa:	29 85       	ldd	r18, Y+9	; 0x09
    39fc:	22 30       	cpi	r18, 0x02	; 2
    39fe:	08 f4       	brcc	.+2      	; 0x3a02 <__divsf3+0x48>
    3a00:	7e c0       	rjmp	.+252    	; 0x3afe <__divsf3+0x144>
    3a02:	39 89       	ldd	r19, Y+17	; 0x11
    3a04:	32 30       	cpi	r19, 0x02	; 2
    3a06:	10 f4       	brcc	.+4      	; 0x3a0c <__divsf3+0x52>
    3a08:	b8 01       	movw	r22, r16
    3a0a:	7c c0       	rjmp	.+248    	; 0x3b04 <__divsf3+0x14a>
    3a0c:	8a 85       	ldd	r24, Y+10	; 0x0a
    3a0e:	9a 89       	ldd	r25, Y+18	; 0x12
    3a10:	89 27       	eor	r24, r25
    3a12:	8a 87       	std	Y+10, r24	; 0x0a
    3a14:	24 30       	cpi	r18, 0x04	; 4
    3a16:	11 f0       	breq	.+4      	; 0x3a1c <__divsf3+0x62>
    3a18:	22 30       	cpi	r18, 0x02	; 2
    3a1a:	31 f4       	brne	.+12     	; 0x3a28 <__divsf3+0x6e>
    3a1c:	23 17       	cp	r18, r19
    3a1e:	09 f0       	breq	.+2      	; 0x3a22 <__divsf3+0x68>
    3a20:	6e c0       	rjmp	.+220    	; 0x3afe <__divsf3+0x144>
    3a22:	6b e5       	ldi	r22, 0x5B	; 91
    3a24:	71 e0       	ldi	r23, 0x01	; 1
    3a26:	6e c0       	rjmp	.+220    	; 0x3b04 <__divsf3+0x14a>
    3a28:	34 30       	cpi	r19, 0x04	; 4
    3a2a:	39 f4       	brne	.+14     	; 0x3a3a <__divsf3+0x80>
    3a2c:	1d 86       	std	Y+13, r1	; 0x0d
    3a2e:	1e 86       	std	Y+14, r1	; 0x0e
    3a30:	1f 86       	std	Y+15, r1	; 0x0f
    3a32:	18 8a       	std	Y+16, r1	; 0x10
    3a34:	1c 86       	std	Y+12, r1	; 0x0c
    3a36:	1b 86       	std	Y+11, r1	; 0x0b
    3a38:	04 c0       	rjmp	.+8      	; 0x3a42 <__divsf3+0x88>
    3a3a:	32 30       	cpi	r19, 0x02	; 2
    3a3c:	21 f4       	brne	.+8      	; 0x3a46 <__divsf3+0x8c>
    3a3e:	84 e0       	ldi	r24, 0x04	; 4
    3a40:	89 87       	std	Y+9, r24	; 0x09
    3a42:	b7 01       	movw	r22, r14
    3a44:	5f c0       	rjmp	.+190    	; 0x3b04 <__divsf3+0x14a>
    3a46:	2b 85       	ldd	r18, Y+11	; 0x0b
    3a48:	3c 85       	ldd	r19, Y+12	; 0x0c
    3a4a:	8b 89       	ldd	r24, Y+19	; 0x13
    3a4c:	9c 89       	ldd	r25, Y+20	; 0x14
    3a4e:	28 1b       	sub	r18, r24
    3a50:	39 0b       	sbc	r19, r25
    3a52:	3c 87       	std	Y+12, r19	; 0x0c
    3a54:	2b 87       	std	Y+11, r18	; 0x0b
    3a56:	ed 84       	ldd	r14, Y+13	; 0x0d
    3a58:	fe 84       	ldd	r15, Y+14	; 0x0e
    3a5a:	0f 85       	ldd	r16, Y+15	; 0x0f
    3a5c:	18 89       	ldd	r17, Y+16	; 0x10
    3a5e:	ad 88       	ldd	r10, Y+21	; 0x15
    3a60:	be 88       	ldd	r11, Y+22	; 0x16
    3a62:	cf 88       	ldd	r12, Y+23	; 0x17
    3a64:	d8 8c       	ldd	r13, Y+24	; 0x18
    3a66:	ea 14       	cp	r14, r10
    3a68:	fb 04       	cpc	r15, r11
    3a6a:	0c 05       	cpc	r16, r12
    3a6c:	1d 05       	cpc	r17, r13
    3a6e:	40 f4       	brcc	.+16     	; 0x3a80 <__divsf3+0xc6>
    3a70:	ee 0c       	add	r14, r14
    3a72:	ff 1c       	adc	r15, r15
    3a74:	00 1f       	adc	r16, r16
    3a76:	11 1f       	adc	r17, r17
    3a78:	21 50       	subi	r18, 0x01	; 1
    3a7a:	30 40       	sbci	r19, 0x00	; 0
    3a7c:	3c 87       	std	Y+12, r19	; 0x0c
    3a7e:	2b 87       	std	Y+11, r18	; 0x0b
    3a80:	20 e0       	ldi	r18, 0x00	; 0
    3a82:	30 e0       	ldi	r19, 0x00	; 0
    3a84:	40 e0       	ldi	r20, 0x00	; 0
    3a86:	50 e0       	ldi	r21, 0x00	; 0
    3a88:	80 e0       	ldi	r24, 0x00	; 0
    3a8a:	90 e0       	ldi	r25, 0x00	; 0
    3a8c:	a0 e0       	ldi	r26, 0x00	; 0
    3a8e:	b0 e4       	ldi	r27, 0x40	; 64
    3a90:	60 e0       	ldi	r22, 0x00	; 0
    3a92:	70 e0       	ldi	r23, 0x00	; 0
    3a94:	ea 14       	cp	r14, r10
    3a96:	fb 04       	cpc	r15, r11
    3a98:	0c 05       	cpc	r16, r12
    3a9a:	1d 05       	cpc	r17, r13
    3a9c:	40 f0       	brcs	.+16     	; 0x3aae <__divsf3+0xf4>
    3a9e:	28 2b       	or	r18, r24
    3aa0:	39 2b       	or	r19, r25
    3aa2:	4a 2b       	or	r20, r26
    3aa4:	5b 2b       	or	r21, r27
    3aa6:	ea 18       	sub	r14, r10
    3aa8:	fb 08       	sbc	r15, r11
    3aaa:	0c 09       	sbc	r16, r12
    3aac:	1d 09       	sbc	r17, r13
    3aae:	b6 95       	lsr	r27
    3ab0:	a7 95       	ror	r26
    3ab2:	97 95       	ror	r25
    3ab4:	87 95       	ror	r24
    3ab6:	ee 0c       	add	r14, r14
    3ab8:	ff 1c       	adc	r15, r15
    3aba:	00 1f       	adc	r16, r16
    3abc:	11 1f       	adc	r17, r17
    3abe:	6f 5f       	subi	r22, 0xFF	; 255
    3ac0:	7f 4f       	sbci	r23, 0xFF	; 255
    3ac2:	6f 31       	cpi	r22, 0x1F	; 31
    3ac4:	71 05       	cpc	r23, r1
    3ac6:	31 f7       	brne	.-52     	; 0x3a94 <__divsf3+0xda>
    3ac8:	da 01       	movw	r26, r20
    3aca:	c9 01       	movw	r24, r18
    3acc:	8f 77       	andi	r24, 0x7F	; 127
    3ace:	90 70       	andi	r25, 0x00	; 0
    3ad0:	a0 70       	andi	r26, 0x00	; 0
    3ad2:	b0 70       	andi	r27, 0x00	; 0
    3ad4:	80 34       	cpi	r24, 0x40	; 64
    3ad6:	91 05       	cpc	r25, r1
    3ad8:	a1 05       	cpc	r26, r1
    3ada:	b1 05       	cpc	r27, r1
    3adc:	61 f4       	brne	.+24     	; 0x3af6 <__divsf3+0x13c>
    3ade:	27 fd       	sbrc	r18, 7
    3ae0:	0a c0       	rjmp	.+20     	; 0x3af6 <__divsf3+0x13c>
    3ae2:	e1 14       	cp	r14, r1
    3ae4:	f1 04       	cpc	r15, r1
    3ae6:	01 05       	cpc	r16, r1
    3ae8:	11 05       	cpc	r17, r1
    3aea:	29 f0       	breq	.+10     	; 0x3af6 <__divsf3+0x13c>
    3aec:	20 5c       	subi	r18, 0xC0	; 192
    3aee:	3f 4f       	sbci	r19, 0xFF	; 255
    3af0:	4f 4f       	sbci	r20, 0xFF	; 255
    3af2:	5f 4f       	sbci	r21, 0xFF	; 255
    3af4:	20 78       	andi	r18, 0x80	; 128
    3af6:	2d 87       	std	Y+13, r18	; 0x0d
    3af8:	3e 87       	std	Y+14, r19	; 0x0e
    3afa:	4f 87       	std	Y+15, r20	; 0x0f
    3afc:	58 8b       	std	Y+16, r21	; 0x10
    3afe:	be 01       	movw	r22, r28
    3b00:	67 5f       	subi	r22, 0xF7	; 247
    3b02:	7f 4f       	sbci	r23, 0xFF	; 255
    3b04:	cb 01       	movw	r24, r22
    3b06:	0e 94 1a 1f 	call	0x3e34	; 0x3e34 <__pack_f>
    3b0a:	68 96       	adiw	r28, 0x18	; 24
    3b0c:	ea e0       	ldi	r30, 0x0A	; 10
    3b0e:	0c 94 48 21 	jmp	0x4290	; 0x4290 <__epilogue_restores__+0x10>

00003b12 <__gtsf2>:
    3b12:	a8 e1       	ldi	r26, 0x18	; 24
    3b14:	b0 e0       	ldi	r27, 0x00	; 0
    3b16:	ef e8       	ldi	r30, 0x8F	; 143
    3b18:	fd e1       	ldi	r31, 0x1D	; 29
    3b1a:	0c 94 30 21 	jmp	0x4260	; 0x4260 <__prologue_saves__+0x18>
    3b1e:	69 83       	std	Y+1, r22	; 0x01
    3b20:	7a 83       	std	Y+2, r23	; 0x02
    3b22:	8b 83       	std	Y+3, r24	; 0x03
    3b24:	9c 83       	std	Y+4, r25	; 0x04
    3b26:	2d 83       	std	Y+5, r18	; 0x05
    3b28:	3e 83       	std	Y+6, r19	; 0x06
    3b2a:	4f 83       	std	Y+7, r20	; 0x07
    3b2c:	58 87       	std	Y+8, r21	; 0x08
    3b2e:	89 e0       	ldi	r24, 0x09	; 9
    3b30:	e8 2e       	mov	r14, r24
    3b32:	f1 2c       	mov	r15, r1
    3b34:	ec 0e       	add	r14, r28
    3b36:	fd 1e       	adc	r15, r29
    3b38:	ce 01       	movw	r24, r28
    3b3a:	01 96       	adiw	r24, 0x01	; 1
    3b3c:	b7 01       	movw	r22, r14
    3b3e:	0e 94 ef 1f 	call	0x3fde	; 0x3fde <__unpack_f>
    3b42:	8e 01       	movw	r16, r28
    3b44:	0f 5e       	subi	r16, 0xEF	; 239
    3b46:	1f 4f       	sbci	r17, 0xFF	; 255
    3b48:	ce 01       	movw	r24, r28
    3b4a:	05 96       	adiw	r24, 0x05	; 5
    3b4c:	b8 01       	movw	r22, r16
    3b4e:	0e 94 ef 1f 	call	0x3fde	; 0x3fde <__unpack_f>
    3b52:	89 85       	ldd	r24, Y+9	; 0x09
    3b54:	82 30       	cpi	r24, 0x02	; 2
    3b56:	40 f0       	brcs	.+16     	; 0x3b68 <__gtsf2+0x56>
    3b58:	89 89       	ldd	r24, Y+17	; 0x11
    3b5a:	82 30       	cpi	r24, 0x02	; 2
    3b5c:	28 f0       	brcs	.+10     	; 0x3b68 <__gtsf2+0x56>
    3b5e:	c7 01       	movw	r24, r14
    3b60:	b8 01       	movw	r22, r16
    3b62:	0e 94 67 20 	call	0x40ce	; 0x40ce <__fpcmp_parts_f>
    3b66:	01 c0       	rjmp	.+2      	; 0x3b6a <__gtsf2+0x58>
    3b68:	8f ef       	ldi	r24, 0xFF	; 255
    3b6a:	68 96       	adiw	r28, 0x18	; 24
    3b6c:	e6 e0       	ldi	r30, 0x06	; 6
    3b6e:	0c 94 4c 21 	jmp	0x4298	; 0x4298 <__epilogue_restores__+0x18>

00003b72 <__gesf2>:
    3b72:	a8 e1       	ldi	r26, 0x18	; 24
    3b74:	b0 e0       	ldi	r27, 0x00	; 0
    3b76:	ef eb       	ldi	r30, 0xBF	; 191
    3b78:	fd e1       	ldi	r31, 0x1D	; 29
    3b7a:	0c 94 30 21 	jmp	0x4260	; 0x4260 <__prologue_saves__+0x18>
    3b7e:	69 83       	std	Y+1, r22	; 0x01
    3b80:	7a 83       	std	Y+2, r23	; 0x02
    3b82:	8b 83       	std	Y+3, r24	; 0x03
    3b84:	9c 83       	std	Y+4, r25	; 0x04
    3b86:	2d 83       	std	Y+5, r18	; 0x05
    3b88:	3e 83       	std	Y+6, r19	; 0x06
    3b8a:	4f 83       	std	Y+7, r20	; 0x07
    3b8c:	58 87       	std	Y+8, r21	; 0x08
    3b8e:	89 e0       	ldi	r24, 0x09	; 9
    3b90:	e8 2e       	mov	r14, r24
    3b92:	f1 2c       	mov	r15, r1
    3b94:	ec 0e       	add	r14, r28
    3b96:	fd 1e       	adc	r15, r29
    3b98:	ce 01       	movw	r24, r28
    3b9a:	01 96       	adiw	r24, 0x01	; 1
    3b9c:	b7 01       	movw	r22, r14
    3b9e:	0e 94 ef 1f 	call	0x3fde	; 0x3fde <__unpack_f>
    3ba2:	8e 01       	movw	r16, r28
    3ba4:	0f 5e       	subi	r16, 0xEF	; 239
    3ba6:	1f 4f       	sbci	r17, 0xFF	; 255
    3ba8:	ce 01       	movw	r24, r28
    3baa:	05 96       	adiw	r24, 0x05	; 5
    3bac:	b8 01       	movw	r22, r16
    3bae:	0e 94 ef 1f 	call	0x3fde	; 0x3fde <__unpack_f>
    3bb2:	89 85       	ldd	r24, Y+9	; 0x09
    3bb4:	82 30       	cpi	r24, 0x02	; 2
    3bb6:	40 f0       	brcs	.+16     	; 0x3bc8 <__gesf2+0x56>
    3bb8:	89 89       	ldd	r24, Y+17	; 0x11
    3bba:	82 30       	cpi	r24, 0x02	; 2
    3bbc:	28 f0       	brcs	.+10     	; 0x3bc8 <__gesf2+0x56>
    3bbe:	c7 01       	movw	r24, r14
    3bc0:	b8 01       	movw	r22, r16
    3bc2:	0e 94 67 20 	call	0x40ce	; 0x40ce <__fpcmp_parts_f>
    3bc6:	01 c0       	rjmp	.+2      	; 0x3bca <__gesf2+0x58>
    3bc8:	8f ef       	ldi	r24, 0xFF	; 255
    3bca:	68 96       	adiw	r28, 0x18	; 24
    3bcc:	e6 e0       	ldi	r30, 0x06	; 6
    3bce:	0c 94 4c 21 	jmp	0x4298	; 0x4298 <__epilogue_restores__+0x18>

00003bd2 <__ltsf2>:
    3bd2:	a8 e1       	ldi	r26, 0x18	; 24
    3bd4:	b0 e0       	ldi	r27, 0x00	; 0
    3bd6:	ef ee       	ldi	r30, 0xEF	; 239
    3bd8:	fd e1       	ldi	r31, 0x1D	; 29
    3bda:	0c 94 30 21 	jmp	0x4260	; 0x4260 <__prologue_saves__+0x18>
    3bde:	69 83       	std	Y+1, r22	; 0x01
    3be0:	7a 83       	std	Y+2, r23	; 0x02
    3be2:	8b 83       	std	Y+3, r24	; 0x03
    3be4:	9c 83       	std	Y+4, r25	; 0x04
    3be6:	2d 83       	std	Y+5, r18	; 0x05
    3be8:	3e 83       	std	Y+6, r19	; 0x06
    3bea:	4f 83       	std	Y+7, r20	; 0x07
    3bec:	58 87       	std	Y+8, r21	; 0x08
    3bee:	89 e0       	ldi	r24, 0x09	; 9
    3bf0:	e8 2e       	mov	r14, r24
    3bf2:	f1 2c       	mov	r15, r1
    3bf4:	ec 0e       	add	r14, r28
    3bf6:	fd 1e       	adc	r15, r29
    3bf8:	ce 01       	movw	r24, r28
    3bfa:	01 96       	adiw	r24, 0x01	; 1
    3bfc:	b7 01       	movw	r22, r14
    3bfe:	0e 94 ef 1f 	call	0x3fde	; 0x3fde <__unpack_f>
    3c02:	8e 01       	movw	r16, r28
    3c04:	0f 5e       	subi	r16, 0xEF	; 239
    3c06:	1f 4f       	sbci	r17, 0xFF	; 255
    3c08:	ce 01       	movw	r24, r28
    3c0a:	05 96       	adiw	r24, 0x05	; 5
    3c0c:	b8 01       	movw	r22, r16
    3c0e:	0e 94 ef 1f 	call	0x3fde	; 0x3fde <__unpack_f>
    3c12:	89 85       	ldd	r24, Y+9	; 0x09
    3c14:	82 30       	cpi	r24, 0x02	; 2
    3c16:	40 f0       	brcs	.+16     	; 0x3c28 <__ltsf2+0x56>
    3c18:	89 89       	ldd	r24, Y+17	; 0x11
    3c1a:	82 30       	cpi	r24, 0x02	; 2
    3c1c:	28 f0       	brcs	.+10     	; 0x3c28 <__ltsf2+0x56>
    3c1e:	c7 01       	movw	r24, r14
    3c20:	b8 01       	movw	r22, r16
    3c22:	0e 94 67 20 	call	0x40ce	; 0x40ce <__fpcmp_parts_f>
    3c26:	01 c0       	rjmp	.+2      	; 0x3c2a <__ltsf2+0x58>
    3c28:	81 e0       	ldi	r24, 0x01	; 1
    3c2a:	68 96       	adiw	r28, 0x18	; 24
    3c2c:	e6 e0       	ldi	r30, 0x06	; 6
    3c2e:	0c 94 4c 21 	jmp	0x4298	; 0x4298 <__epilogue_restores__+0x18>

00003c32 <__floatsisf>:
    3c32:	a8 e0       	ldi	r26, 0x08	; 8
    3c34:	b0 e0       	ldi	r27, 0x00	; 0
    3c36:	ef e1       	ldi	r30, 0x1F	; 31
    3c38:	fe e1       	ldi	r31, 0x1E	; 30
    3c3a:	0c 94 2d 21 	jmp	0x425a	; 0x425a <__prologue_saves__+0x12>
    3c3e:	9b 01       	movw	r18, r22
    3c40:	ac 01       	movw	r20, r24
    3c42:	83 e0       	ldi	r24, 0x03	; 3
    3c44:	89 83       	std	Y+1, r24	; 0x01
    3c46:	da 01       	movw	r26, r20
    3c48:	c9 01       	movw	r24, r18
    3c4a:	88 27       	eor	r24, r24
    3c4c:	b7 fd       	sbrc	r27, 7
    3c4e:	83 95       	inc	r24
    3c50:	99 27       	eor	r25, r25
    3c52:	aa 27       	eor	r26, r26
    3c54:	bb 27       	eor	r27, r27
    3c56:	b8 2e       	mov	r11, r24
    3c58:	21 15       	cp	r18, r1
    3c5a:	31 05       	cpc	r19, r1
    3c5c:	41 05       	cpc	r20, r1
    3c5e:	51 05       	cpc	r21, r1
    3c60:	19 f4       	brne	.+6      	; 0x3c68 <__floatsisf+0x36>
    3c62:	82 e0       	ldi	r24, 0x02	; 2
    3c64:	89 83       	std	Y+1, r24	; 0x01
    3c66:	3a c0       	rjmp	.+116    	; 0x3cdc <__floatsisf+0xaa>
    3c68:	88 23       	and	r24, r24
    3c6a:	a9 f0       	breq	.+42     	; 0x3c96 <__floatsisf+0x64>
    3c6c:	20 30       	cpi	r18, 0x00	; 0
    3c6e:	80 e0       	ldi	r24, 0x00	; 0
    3c70:	38 07       	cpc	r19, r24
    3c72:	80 e0       	ldi	r24, 0x00	; 0
    3c74:	48 07       	cpc	r20, r24
    3c76:	80 e8       	ldi	r24, 0x80	; 128
    3c78:	58 07       	cpc	r21, r24
    3c7a:	29 f4       	brne	.+10     	; 0x3c86 <__floatsisf+0x54>
    3c7c:	60 e0       	ldi	r22, 0x00	; 0
    3c7e:	70 e0       	ldi	r23, 0x00	; 0
    3c80:	80 e0       	ldi	r24, 0x00	; 0
    3c82:	9f ec       	ldi	r25, 0xCF	; 207
    3c84:	30 c0       	rjmp	.+96     	; 0x3ce6 <__floatsisf+0xb4>
    3c86:	ee 24       	eor	r14, r14
    3c88:	ff 24       	eor	r15, r15
    3c8a:	87 01       	movw	r16, r14
    3c8c:	e2 1a       	sub	r14, r18
    3c8e:	f3 0a       	sbc	r15, r19
    3c90:	04 0b       	sbc	r16, r20
    3c92:	15 0b       	sbc	r17, r21
    3c94:	02 c0       	rjmp	.+4      	; 0x3c9a <__floatsisf+0x68>
    3c96:	79 01       	movw	r14, r18
    3c98:	8a 01       	movw	r16, r20
    3c9a:	8e e1       	ldi	r24, 0x1E	; 30
    3c9c:	c8 2e       	mov	r12, r24
    3c9e:	d1 2c       	mov	r13, r1
    3ca0:	dc 82       	std	Y+4, r13	; 0x04
    3ca2:	cb 82       	std	Y+3, r12	; 0x03
    3ca4:	ed 82       	std	Y+5, r14	; 0x05
    3ca6:	fe 82       	std	Y+6, r15	; 0x06
    3ca8:	0f 83       	std	Y+7, r16	; 0x07
    3caa:	18 87       	std	Y+8, r17	; 0x08
    3cac:	c8 01       	movw	r24, r16
    3cae:	b7 01       	movw	r22, r14
    3cb0:	0e 94 cb 1e 	call	0x3d96	; 0x3d96 <__clzsi2>
    3cb4:	01 97       	sbiw	r24, 0x01	; 1
    3cb6:	18 16       	cp	r1, r24
    3cb8:	19 06       	cpc	r1, r25
    3cba:	84 f4       	brge	.+32     	; 0x3cdc <__floatsisf+0xaa>
    3cbc:	08 2e       	mov	r0, r24
    3cbe:	04 c0       	rjmp	.+8      	; 0x3cc8 <__floatsisf+0x96>
    3cc0:	ee 0c       	add	r14, r14
    3cc2:	ff 1c       	adc	r15, r15
    3cc4:	00 1f       	adc	r16, r16
    3cc6:	11 1f       	adc	r17, r17
    3cc8:	0a 94       	dec	r0
    3cca:	d2 f7       	brpl	.-12     	; 0x3cc0 <__floatsisf+0x8e>
    3ccc:	ed 82       	std	Y+5, r14	; 0x05
    3cce:	fe 82       	std	Y+6, r15	; 0x06
    3cd0:	0f 83       	std	Y+7, r16	; 0x07
    3cd2:	18 87       	std	Y+8, r17	; 0x08
    3cd4:	c8 1a       	sub	r12, r24
    3cd6:	d9 0a       	sbc	r13, r25
    3cd8:	dc 82       	std	Y+4, r13	; 0x04
    3cda:	cb 82       	std	Y+3, r12	; 0x03
    3cdc:	ba 82       	std	Y+2, r11	; 0x02
    3cde:	ce 01       	movw	r24, r28
    3ce0:	01 96       	adiw	r24, 0x01	; 1
    3ce2:	0e 94 1a 1f 	call	0x3e34	; 0x3e34 <__pack_f>
    3ce6:	28 96       	adiw	r28, 0x08	; 8
    3ce8:	e9 e0       	ldi	r30, 0x09	; 9
    3cea:	0c 94 49 21 	jmp	0x4292	; 0x4292 <__epilogue_restores__+0x12>

00003cee <__fixsfsi>:
    3cee:	ac e0       	ldi	r26, 0x0C	; 12
    3cf0:	b0 e0       	ldi	r27, 0x00	; 0
    3cf2:	ed e7       	ldi	r30, 0x7D	; 125
    3cf4:	fe e1       	ldi	r31, 0x1E	; 30
    3cf6:	0c 94 34 21 	jmp	0x4268	; 0x4268 <__prologue_saves__+0x20>
    3cfa:	69 83       	std	Y+1, r22	; 0x01
    3cfc:	7a 83       	std	Y+2, r23	; 0x02
    3cfe:	8b 83       	std	Y+3, r24	; 0x03
    3d00:	9c 83       	std	Y+4, r25	; 0x04
    3d02:	ce 01       	movw	r24, r28
    3d04:	01 96       	adiw	r24, 0x01	; 1
    3d06:	be 01       	movw	r22, r28
    3d08:	6b 5f       	subi	r22, 0xFB	; 251
    3d0a:	7f 4f       	sbci	r23, 0xFF	; 255
    3d0c:	0e 94 ef 1f 	call	0x3fde	; 0x3fde <__unpack_f>
    3d10:	8d 81       	ldd	r24, Y+5	; 0x05
    3d12:	82 30       	cpi	r24, 0x02	; 2
    3d14:	61 f1       	breq	.+88     	; 0x3d6e <__fixsfsi+0x80>
    3d16:	82 30       	cpi	r24, 0x02	; 2
    3d18:	50 f1       	brcs	.+84     	; 0x3d6e <__fixsfsi+0x80>
    3d1a:	84 30       	cpi	r24, 0x04	; 4
    3d1c:	21 f4       	brne	.+8      	; 0x3d26 <__fixsfsi+0x38>
    3d1e:	8e 81       	ldd	r24, Y+6	; 0x06
    3d20:	88 23       	and	r24, r24
    3d22:	51 f1       	breq	.+84     	; 0x3d78 <__fixsfsi+0x8a>
    3d24:	2e c0       	rjmp	.+92     	; 0x3d82 <__fixsfsi+0x94>
    3d26:	2f 81       	ldd	r18, Y+7	; 0x07
    3d28:	38 85       	ldd	r19, Y+8	; 0x08
    3d2a:	37 fd       	sbrc	r19, 7
    3d2c:	20 c0       	rjmp	.+64     	; 0x3d6e <__fixsfsi+0x80>
    3d2e:	6e 81       	ldd	r22, Y+6	; 0x06
    3d30:	2f 31       	cpi	r18, 0x1F	; 31
    3d32:	31 05       	cpc	r19, r1
    3d34:	1c f0       	brlt	.+6      	; 0x3d3c <__fixsfsi+0x4e>
    3d36:	66 23       	and	r22, r22
    3d38:	f9 f0       	breq	.+62     	; 0x3d78 <__fixsfsi+0x8a>
    3d3a:	23 c0       	rjmp	.+70     	; 0x3d82 <__fixsfsi+0x94>
    3d3c:	8e e1       	ldi	r24, 0x1E	; 30
    3d3e:	90 e0       	ldi	r25, 0x00	; 0
    3d40:	82 1b       	sub	r24, r18
    3d42:	93 0b       	sbc	r25, r19
    3d44:	29 85       	ldd	r18, Y+9	; 0x09
    3d46:	3a 85       	ldd	r19, Y+10	; 0x0a
    3d48:	4b 85       	ldd	r20, Y+11	; 0x0b
    3d4a:	5c 85       	ldd	r21, Y+12	; 0x0c
    3d4c:	04 c0       	rjmp	.+8      	; 0x3d56 <__fixsfsi+0x68>
    3d4e:	56 95       	lsr	r21
    3d50:	47 95       	ror	r20
    3d52:	37 95       	ror	r19
    3d54:	27 95       	ror	r18
    3d56:	8a 95       	dec	r24
    3d58:	d2 f7       	brpl	.-12     	; 0x3d4e <__fixsfsi+0x60>
    3d5a:	66 23       	and	r22, r22
    3d5c:	b1 f0       	breq	.+44     	; 0x3d8a <__fixsfsi+0x9c>
    3d5e:	50 95       	com	r21
    3d60:	40 95       	com	r20
    3d62:	30 95       	com	r19
    3d64:	21 95       	neg	r18
    3d66:	3f 4f       	sbci	r19, 0xFF	; 255
    3d68:	4f 4f       	sbci	r20, 0xFF	; 255
    3d6a:	5f 4f       	sbci	r21, 0xFF	; 255
    3d6c:	0e c0       	rjmp	.+28     	; 0x3d8a <__fixsfsi+0x9c>
    3d6e:	20 e0       	ldi	r18, 0x00	; 0
    3d70:	30 e0       	ldi	r19, 0x00	; 0
    3d72:	40 e0       	ldi	r20, 0x00	; 0
    3d74:	50 e0       	ldi	r21, 0x00	; 0
    3d76:	09 c0       	rjmp	.+18     	; 0x3d8a <__fixsfsi+0x9c>
    3d78:	2f ef       	ldi	r18, 0xFF	; 255
    3d7a:	3f ef       	ldi	r19, 0xFF	; 255
    3d7c:	4f ef       	ldi	r20, 0xFF	; 255
    3d7e:	5f e7       	ldi	r21, 0x7F	; 127
    3d80:	04 c0       	rjmp	.+8      	; 0x3d8a <__fixsfsi+0x9c>
    3d82:	20 e0       	ldi	r18, 0x00	; 0
    3d84:	30 e0       	ldi	r19, 0x00	; 0
    3d86:	40 e0       	ldi	r20, 0x00	; 0
    3d88:	50 e8       	ldi	r21, 0x80	; 128
    3d8a:	b9 01       	movw	r22, r18
    3d8c:	ca 01       	movw	r24, r20
    3d8e:	2c 96       	adiw	r28, 0x0c	; 12
    3d90:	e2 e0       	ldi	r30, 0x02	; 2
    3d92:	0c 94 50 21 	jmp	0x42a0	; 0x42a0 <__epilogue_restores__+0x20>

00003d96 <__clzsi2>:
    3d96:	ef 92       	push	r14
    3d98:	ff 92       	push	r15
    3d9a:	0f 93       	push	r16
    3d9c:	1f 93       	push	r17
    3d9e:	7b 01       	movw	r14, r22
    3da0:	8c 01       	movw	r16, r24
    3da2:	80 e0       	ldi	r24, 0x00	; 0
    3da4:	e8 16       	cp	r14, r24
    3da6:	80 e0       	ldi	r24, 0x00	; 0
    3da8:	f8 06       	cpc	r15, r24
    3daa:	81 e0       	ldi	r24, 0x01	; 1
    3dac:	08 07       	cpc	r16, r24
    3dae:	80 e0       	ldi	r24, 0x00	; 0
    3db0:	18 07       	cpc	r17, r24
    3db2:	88 f4       	brcc	.+34     	; 0x3dd6 <__clzsi2+0x40>
    3db4:	8f ef       	ldi	r24, 0xFF	; 255
    3db6:	e8 16       	cp	r14, r24
    3db8:	f1 04       	cpc	r15, r1
    3dba:	01 05       	cpc	r16, r1
    3dbc:	11 05       	cpc	r17, r1
    3dbe:	31 f0       	breq	.+12     	; 0x3dcc <__clzsi2+0x36>
    3dc0:	28 f0       	brcs	.+10     	; 0x3dcc <__clzsi2+0x36>
    3dc2:	88 e0       	ldi	r24, 0x08	; 8
    3dc4:	90 e0       	ldi	r25, 0x00	; 0
    3dc6:	a0 e0       	ldi	r26, 0x00	; 0
    3dc8:	b0 e0       	ldi	r27, 0x00	; 0
    3dca:	17 c0       	rjmp	.+46     	; 0x3dfa <__clzsi2+0x64>
    3dcc:	80 e0       	ldi	r24, 0x00	; 0
    3dce:	90 e0       	ldi	r25, 0x00	; 0
    3dd0:	a0 e0       	ldi	r26, 0x00	; 0
    3dd2:	b0 e0       	ldi	r27, 0x00	; 0
    3dd4:	12 c0       	rjmp	.+36     	; 0x3dfa <__clzsi2+0x64>
    3dd6:	80 e0       	ldi	r24, 0x00	; 0
    3dd8:	e8 16       	cp	r14, r24
    3dda:	80 e0       	ldi	r24, 0x00	; 0
    3ddc:	f8 06       	cpc	r15, r24
    3dde:	80 e0       	ldi	r24, 0x00	; 0
    3de0:	08 07       	cpc	r16, r24
    3de2:	81 e0       	ldi	r24, 0x01	; 1
    3de4:	18 07       	cpc	r17, r24
    3de6:	28 f0       	brcs	.+10     	; 0x3df2 <__clzsi2+0x5c>
    3de8:	88 e1       	ldi	r24, 0x18	; 24
    3dea:	90 e0       	ldi	r25, 0x00	; 0
    3dec:	a0 e0       	ldi	r26, 0x00	; 0
    3dee:	b0 e0       	ldi	r27, 0x00	; 0
    3df0:	04 c0       	rjmp	.+8      	; 0x3dfa <__clzsi2+0x64>
    3df2:	80 e1       	ldi	r24, 0x10	; 16
    3df4:	90 e0       	ldi	r25, 0x00	; 0
    3df6:	a0 e0       	ldi	r26, 0x00	; 0
    3df8:	b0 e0       	ldi	r27, 0x00	; 0
    3dfa:	20 e2       	ldi	r18, 0x20	; 32
    3dfc:	30 e0       	ldi	r19, 0x00	; 0
    3dfe:	40 e0       	ldi	r20, 0x00	; 0
    3e00:	50 e0       	ldi	r21, 0x00	; 0
    3e02:	28 1b       	sub	r18, r24
    3e04:	39 0b       	sbc	r19, r25
    3e06:	4a 0b       	sbc	r20, r26
    3e08:	5b 0b       	sbc	r21, r27
    3e0a:	04 c0       	rjmp	.+8      	; 0x3e14 <__clzsi2+0x7e>
    3e0c:	16 95       	lsr	r17
    3e0e:	07 95       	ror	r16
    3e10:	f7 94       	ror	r15
    3e12:	e7 94       	ror	r14
    3e14:	8a 95       	dec	r24
    3e16:	d2 f7       	brpl	.-12     	; 0x3e0c <__clzsi2+0x76>
    3e18:	f7 01       	movw	r30, r14
    3e1a:	ed 59       	subi	r30, 0x9D	; 157
    3e1c:	fe 4f       	sbci	r31, 0xFE	; 254
    3e1e:	80 81       	ld	r24, Z
    3e20:	28 1b       	sub	r18, r24
    3e22:	31 09       	sbc	r19, r1
    3e24:	41 09       	sbc	r20, r1
    3e26:	51 09       	sbc	r21, r1
    3e28:	c9 01       	movw	r24, r18
    3e2a:	1f 91       	pop	r17
    3e2c:	0f 91       	pop	r16
    3e2e:	ff 90       	pop	r15
    3e30:	ef 90       	pop	r14
    3e32:	08 95       	ret

00003e34 <__pack_f>:
    3e34:	df 92       	push	r13
    3e36:	ef 92       	push	r14
    3e38:	ff 92       	push	r15
    3e3a:	0f 93       	push	r16
    3e3c:	1f 93       	push	r17
    3e3e:	fc 01       	movw	r30, r24
    3e40:	e4 80       	ldd	r14, Z+4	; 0x04
    3e42:	f5 80       	ldd	r15, Z+5	; 0x05
    3e44:	06 81       	ldd	r16, Z+6	; 0x06
    3e46:	17 81       	ldd	r17, Z+7	; 0x07
    3e48:	d1 80       	ldd	r13, Z+1	; 0x01
    3e4a:	80 81       	ld	r24, Z
    3e4c:	82 30       	cpi	r24, 0x02	; 2
    3e4e:	48 f4       	brcc	.+18     	; 0x3e62 <__pack_f+0x2e>
    3e50:	80 e0       	ldi	r24, 0x00	; 0
    3e52:	90 e0       	ldi	r25, 0x00	; 0
    3e54:	a0 e1       	ldi	r26, 0x10	; 16
    3e56:	b0 e0       	ldi	r27, 0x00	; 0
    3e58:	e8 2a       	or	r14, r24
    3e5a:	f9 2a       	or	r15, r25
    3e5c:	0a 2b       	or	r16, r26
    3e5e:	1b 2b       	or	r17, r27
    3e60:	a5 c0       	rjmp	.+330    	; 0x3fac <__pack_f+0x178>
    3e62:	84 30       	cpi	r24, 0x04	; 4
    3e64:	09 f4       	brne	.+2      	; 0x3e68 <__pack_f+0x34>
    3e66:	9f c0       	rjmp	.+318    	; 0x3fa6 <__pack_f+0x172>
    3e68:	82 30       	cpi	r24, 0x02	; 2
    3e6a:	21 f4       	brne	.+8      	; 0x3e74 <__pack_f+0x40>
    3e6c:	ee 24       	eor	r14, r14
    3e6e:	ff 24       	eor	r15, r15
    3e70:	87 01       	movw	r16, r14
    3e72:	05 c0       	rjmp	.+10     	; 0x3e7e <__pack_f+0x4a>
    3e74:	e1 14       	cp	r14, r1
    3e76:	f1 04       	cpc	r15, r1
    3e78:	01 05       	cpc	r16, r1
    3e7a:	11 05       	cpc	r17, r1
    3e7c:	19 f4       	brne	.+6      	; 0x3e84 <__pack_f+0x50>
    3e7e:	e0 e0       	ldi	r30, 0x00	; 0
    3e80:	f0 e0       	ldi	r31, 0x00	; 0
    3e82:	96 c0       	rjmp	.+300    	; 0x3fb0 <__pack_f+0x17c>
    3e84:	62 81       	ldd	r22, Z+2	; 0x02
    3e86:	73 81       	ldd	r23, Z+3	; 0x03
    3e88:	9f ef       	ldi	r25, 0xFF	; 255
    3e8a:	62 38       	cpi	r22, 0x82	; 130
    3e8c:	79 07       	cpc	r23, r25
    3e8e:	0c f0       	brlt	.+2      	; 0x3e92 <__pack_f+0x5e>
    3e90:	5b c0       	rjmp	.+182    	; 0x3f48 <__pack_f+0x114>
    3e92:	22 e8       	ldi	r18, 0x82	; 130
    3e94:	3f ef       	ldi	r19, 0xFF	; 255
    3e96:	26 1b       	sub	r18, r22
    3e98:	37 0b       	sbc	r19, r23
    3e9a:	2a 31       	cpi	r18, 0x1A	; 26
    3e9c:	31 05       	cpc	r19, r1
    3e9e:	2c f0       	brlt	.+10     	; 0x3eaa <__pack_f+0x76>
    3ea0:	20 e0       	ldi	r18, 0x00	; 0
    3ea2:	30 e0       	ldi	r19, 0x00	; 0
    3ea4:	40 e0       	ldi	r20, 0x00	; 0
    3ea6:	50 e0       	ldi	r21, 0x00	; 0
    3ea8:	2a c0       	rjmp	.+84     	; 0x3efe <__pack_f+0xca>
    3eaa:	b8 01       	movw	r22, r16
    3eac:	a7 01       	movw	r20, r14
    3eae:	02 2e       	mov	r0, r18
    3eb0:	04 c0       	rjmp	.+8      	; 0x3eba <__pack_f+0x86>
    3eb2:	76 95       	lsr	r23
    3eb4:	67 95       	ror	r22
    3eb6:	57 95       	ror	r21
    3eb8:	47 95       	ror	r20
    3eba:	0a 94       	dec	r0
    3ebc:	d2 f7       	brpl	.-12     	; 0x3eb2 <__pack_f+0x7e>
    3ebe:	81 e0       	ldi	r24, 0x01	; 1
    3ec0:	90 e0       	ldi	r25, 0x00	; 0
    3ec2:	a0 e0       	ldi	r26, 0x00	; 0
    3ec4:	b0 e0       	ldi	r27, 0x00	; 0
    3ec6:	04 c0       	rjmp	.+8      	; 0x3ed0 <__pack_f+0x9c>
    3ec8:	88 0f       	add	r24, r24
    3eca:	99 1f       	adc	r25, r25
    3ecc:	aa 1f       	adc	r26, r26
    3ece:	bb 1f       	adc	r27, r27
    3ed0:	2a 95       	dec	r18
    3ed2:	d2 f7       	brpl	.-12     	; 0x3ec8 <__pack_f+0x94>
    3ed4:	01 97       	sbiw	r24, 0x01	; 1
    3ed6:	a1 09       	sbc	r26, r1
    3ed8:	b1 09       	sbc	r27, r1
    3eda:	8e 21       	and	r24, r14
    3edc:	9f 21       	and	r25, r15
    3ede:	a0 23       	and	r26, r16
    3ee0:	b1 23       	and	r27, r17
    3ee2:	00 97       	sbiw	r24, 0x00	; 0
    3ee4:	a1 05       	cpc	r26, r1
    3ee6:	b1 05       	cpc	r27, r1
    3ee8:	21 f0       	breq	.+8      	; 0x3ef2 <__pack_f+0xbe>
    3eea:	81 e0       	ldi	r24, 0x01	; 1
    3eec:	90 e0       	ldi	r25, 0x00	; 0
    3eee:	a0 e0       	ldi	r26, 0x00	; 0
    3ef0:	b0 e0       	ldi	r27, 0x00	; 0
    3ef2:	9a 01       	movw	r18, r20
    3ef4:	ab 01       	movw	r20, r22
    3ef6:	28 2b       	or	r18, r24
    3ef8:	39 2b       	or	r19, r25
    3efa:	4a 2b       	or	r20, r26
    3efc:	5b 2b       	or	r21, r27
    3efe:	da 01       	movw	r26, r20
    3f00:	c9 01       	movw	r24, r18
    3f02:	8f 77       	andi	r24, 0x7F	; 127
    3f04:	90 70       	andi	r25, 0x00	; 0
    3f06:	a0 70       	andi	r26, 0x00	; 0
    3f08:	b0 70       	andi	r27, 0x00	; 0
    3f0a:	80 34       	cpi	r24, 0x40	; 64
    3f0c:	91 05       	cpc	r25, r1
    3f0e:	a1 05       	cpc	r26, r1
    3f10:	b1 05       	cpc	r27, r1
    3f12:	39 f4       	brne	.+14     	; 0x3f22 <__pack_f+0xee>
    3f14:	27 ff       	sbrs	r18, 7
    3f16:	09 c0       	rjmp	.+18     	; 0x3f2a <__pack_f+0xf6>
    3f18:	20 5c       	subi	r18, 0xC0	; 192
    3f1a:	3f 4f       	sbci	r19, 0xFF	; 255
    3f1c:	4f 4f       	sbci	r20, 0xFF	; 255
    3f1e:	5f 4f       	sbci	r21, 0xFF	; 255
    3f20:	04 c0       	rjmp	.+8      	; 0x3f2a <__pack_f+0xf6>
    3f22:	21 5c       	subi	r18, 0xC1	; 193
    3f24:	3f 4f       	sbci	r19, 0xFF	; 255
    3f26:	4f 4f       	sbci	r20, 0xFF	; 255
    3f28:	5f 4f       	sbci	r21, 0xFF	; 255
    3f2a:	e0 e0       	ldi	r30, 0x00	; 0
    3f2c:	f0 e0       	ldi	r31, 0x00	; 0
    3f2e:	20 30       	cpi	r18, 0x00	; 0
    3f30:	a0 e0       	ldi	r26, 0x00	; 0
    3f32:	3a 07       	cpc	r19, r26
    3f34:	a0 e0       	ldi	r26, 0x00	; 0
    3f36:	4a 07       	cpc	r20, r26
    3f38:	a0 e4       	ldi	r26, 0x40	; 64
    3f3a:	5a 07       	cpc	r21, r26
    3f3c:	10 f0       	brcs	.+4      	; 0x3f42 <__pack_f+0x10e>
    3f3e:	e1 e0       	ldi	r30, 0x01	; 1
    3f40:	f0 e0       	ldi	r31, 0x00	; 0
    3f42:	79 01       	movw	r14, r18
    3f44:	8a 01       	movw	r16, r20
    3f46:	27 c0       	rjmp	.+78     	; 0x3f96 <__pack_f+0x162>
    3f48:	60 38       	cpi	r22, 0x80	; 128
    3f4a:	71 05       	cpc	r23, r1
    3f4c:	64 f5       	brge	.+88     	; 0x3fa6 <__pack_f+0x172>
    3f4e:	fb 01       	movw	r30, r22
    3f50:	e1 58       	subi	r30, 0x81	; 129
    3f52:	ff 4f       	sbci	r31, 0xFF	; 255
    3f54:	d8 01       	movw	r26, r16
    3f56:	c7 01       	movw	r24, r14
    3f58:	8f 77       	andi	r24, 0x7F	; 127
    3f5a:	90 70       	andi	r25, 0x00	; 0
    3f5c:	a0 70       	andi	r26, 0x00	; 0
    3f5e:	b0 70       	andi	r27, 0x00	; 0
    3f60:	80 34       	cpi	r24, 0x40	; 64
    3f62:	91 05       	cpc	r25, r1
    3f64:	a1 05       	cpc	r26, r1
    3f66:	b1 05       	cpc	r27, r1
    3f68:	39 f4       	brne	.+14     	; 0x3f78 <__pack_f+0x144>
    3f6a:	e7 fe       	sbrs	r14, 7
    3f6c:	0d c0       	rjmp	.+26     	; 0x3f88 <__pack_f+0x154>
    3f6e:	80 e4       	ldi	r24, 0x40	; 64
    3f70:	90 e0       	ldi	r25, 0x00	; 0
    3f72:	a0 e0       	ldi	r26, 0x00	; 0
    3f74:	b0 e0       	ldi	r27, 0x00	; 0
    3f76:	04 c0       	rjmp	.+8      	; 0x3f80 <__pack_f+0x14c>
    3f78:	8f e3       	ldi	r24, 0x3F	; 63
    3f7a:	90 e0       	ldi	r25, 0x00	; 0
    3f7c:	a0 e0       	ldi	r26, 0x00	; 0
    3f7e:	b0 e0       	ldi	r27, 0x00	; 0
    3f80:	e8 0e       	add	r14, r24
    3f82:	f9 1e       	adc	r15, r25
    3f84:	0a 1f       	adc	r16, r26
    3f86:	1b 1f       	adc	r17, r27
    3f88:	17 ff       	sbrs	r17, 7
    3f8a:	05 c0       	rjmp	.+10     	; 0x3f96 <__pack_f+0x162>
    3f8c:	16 95       	lsr	r17
    3f8e:	07 95       	ror	r16
    3f90:	f7 94       	ror	r15
    3f92:	e7 94       	ror	r14
    3f94:	31 96       	adiw	r30, 0x01	; 1
    3f96:	87 e0       	ldi	r24, 0x07	; 7
    3f98:	16 95       	lsr	r17
    3f9a:	07 95       	ror	r16
    3f9c:	f7 94       	ror	r15
    3f9e:	e7 94       	ror	r14
    3fa0:	8a 95       	dec	r24
    3fa2:	d1 f7       	brne	.-12     	; 0x3f98 <__pack_f+0x164>
    3fa4:	05 c0       	rjmp	.+10     	; 0x3fb0 <__pack_f+0x17c>
    3fa6:	ee 24       	eor	r14, r14
    3fa8:	ff 24       	eor	r15, r15
    3faa:	87 01       	movw	r16, r14
    3fac:	ef ef       	ldi	r30, 0xFF	; 255
    3fae:	f0 e0       	ldi	r31, 0x00	; 0
    3fb0:	6e 2f       	mov	r22, r30
    3fb2:	67 95       	ror	r22
    3fb4:	66 27       	eor	r22, r22
    3fb6:	67 95       	ror	r22
    3fb8:	90 2f       	mov	r25, r16
    3fba:	9f 77       	andi	r25, 0x7F	; 127
    3fbc:	d7 94       	ror	r13
    3fbe:	dd 24       	eor	r13, r13
    3fc0:	d7 94       	ror	r13
    3fc2:	8e 2f       	mov	r24, r30
    3fc4:	86 95       	lsr	r24
    3fc6:	49 2f       	mov	r20, r25
    3fc8:	46 2b       	or	r20, r22
    3fca:	58 2f       	mov	r21, r24
    3fcc:	5d 29       	or	r21, r13
    3fce:	b7 01       	movw	r22, r14
    3fd0:	ca 01       	movw	r24, r20
    3fd2:	1f 91       	pop	r17
    3fd4:	0f 91       	pop	r16
    3fd6:	ff 90       	pop	r15
    3fd8:	ef 90       	pop	r14
    3fda:	df 90       	pop	r13
    3fdc:	08 95       	ret

00003fde <__unpack_f>:
    3fde:	fc 01       	movw	r30, r24
    3fe0:	db 01       	movw	r26, r22
    3fe2:	40 81       	ld	r20, Z
    3fe4:	51 81       	ldd	r21, Z+1	; 0x01
    3fe6:	22 81       	ldd	r18, Z+2	; 0x02
    3fe8:	62 2f       	mov	r22, r18
    3fea:	6f 77       	andi	r22, 0x7F	; 127
    3fec:	70 e0       	ldi	r23, 0x00	; 0
    3fee:	22 1f       	adc	r18, r18
    3ff0:	22 27       	eor	r18, r18
    3ff2:	22 1f       	adc	r18, r18
    3ff4:	93 81       	ldd	r25, Z+3	; 0x03
    3ff6:	89 2f       	mov	r24, r25
    3ff8:	88 0f       	add	r24, r24
    3ffa:	82 2b       	or	r24, r18
    3ffc:	28 2f       	mov	r18, r24
    3ffe:	30 e0       	ldi	r19, 0x00	; 0
    4000:	99 1f       	adc	r25, r25
    4002:	99 27       	eor	r25, r25
    4004:	99 1f       	adc	r25, r25
    4006:	11 96       	adiw	r26, 0x01	; 1
    4008:	9c 93       	st	X, r25
    400a:	11 97       	sbiw	r26, 0x01	; 1
    400c:	21 15       	cp	r18, r1
    400e:	31 05       	cpc	r19, r1
    4010:	a9 f5       	brne	.+106    	; 0x407c <__unpack_f+0x9e>
    4012:	41 15       	cp	r20, r1
    4014:	51 05       	cpc	r21, r1
    4016:	61 05       	cpc	r22, r1
    4018:	71 05       	cpc	r23, r1
    401a:	11 f4       	brne	.+4      	; 0x4020 <__unpack_f+0x42>
    401c:	82 e0       	ldi	r24, 0x02	; 2
    401e:	37 c0       	rjmp	.+110    	; 0x408e <__unpack_f+0xb0>
    4020:	82 e8       	ldi	r24, 0x82	; 130
    4022:	9f ef       	ldi	r25, 0xFF	; 255
    4024:	13 96       	adiw	r26, 0x03	; 3
    4026:	9c 93       	st	X, r25
    4028:	8e 93       	st	-X, r24
    402a:	12 97       	sbiw	r26, 0x02	; 2
    402c:	9a 01       	movw	r18, r20
    402e:	ab 01       	movw	r20, r22
    4030:	67 e0       	ldi	r22, 0x07	; 7
    4032:	22 0f       	add	r18, r18
    4034:	33 1f       	adc	r19, r19
    4036:	44 1f       	adc	r20, r20
    4038:	55 1f       	adc	r21, r21
    403a:	6a 95       	dec	r22
    403c:	d1 f7       	brne	.-12     	; 0x4032 <__unpack_f+0x54>
    403e:	83 e0       	ldi	r24, 0x03	; 3
    4040:	8c 93       	st	X, r24
    4042:	0d c0       	rjmp	.+26     	; 0x405e <__unpack_f+0x80>
    4044:	22 0f       	add	r18, r18
    4046:	33 1f       	adc	r19, r19
    4048:	44 1f       	adc	r20, r20
    404a:	55 1f       	adc	r21, r21
    404c:	12 96       	adiw	r26, 0x02	; 2
    404e:	8d 91       	ld	r24, X+
    4050:	9c 91       	ld	r25, X
    4052:	13 97       	sbiw	r26, 0x03	; 3
    4054:	01 97       	sbiw	r24, 0x01	; 1
    4056:	13 96       	adiw	r26, 0x03	; 3
    4058:	9c 93       	st	X, r25
    405a:	8e 93       	st	-X, r24
    405c:	12 97       	sbiw	r26, 0x02	; 2
    405e:	20 30       	cpi	r18, 0x00	; 0
    4060:	80 e0       	ldi	r24, 0x00	; 0
    4062:	38 07       	cpc	r19, r24
    4064:	80 e0       	ldi	r24, 0x00	; 0
    4066:	48 07       	cpc	r20, r24
    4068:	80 e4       	ldi	r24, 0x40	; 64
    406a:	58 07       	cpc	r21, r24
    406c:	58 f3       	brcs	.-42     	; 0x4044 <__unpack_f+0x66>
    406e:	14 96       	adiw	r26, 0x04	; 4
    4070:	2d 93       	st	X+, r18
    4072:	3d 93       	st	X+, r19
    4074:	4d 93       	st	X+, r20
    4076:	5c 93       	st	X, r21
    4078:	17 97       	sbiw	r26, 0x07	; 7
    407a:	08 95       	ret
    407c:	2f 3f       	cpi	r18, 0xFF	; 255
    407e:	31 05       	cpc	r19, r1
    4080:	79 f4       	brne	.+30     	; 0x40a0 <__unpack_f+0xc2>
    4082:	41 15       	cp	r20, r1
    4084:	51 05       	cpc	r21, r1
    4086:	61 05       	cpc	r22, r1
    4088:	71 05       	cpc	r23, r1
    408a:	19 f4       	brne	.+6      	; 0x4092 <__unpack_f+0xb4>
    408c:	84 e0       	ldi	r24, 0x04	; 4
    408e:	8c 93       	st	X, r24
    4090:	08 95       	ret
    4092:	64 ff       	sbrs	r22, 4
    4094:	03 c0       	rjmp	.+6      	; 0x409c <__unpack_f+0xbe>
    4096:	81 e0       	ldi	r24, 0x01	; 1
    4098:	8c 93       	st	X, r24
    409a:	12 c0       	rjmp	.+36     	; 0x40c0 <__unpack_f+0xe2>
    409c:	1c 92       	st	X, r1
    409e:	10 c0       	rjmp	.+32     	; 0x40c0 <__unpack_f+0xe2>
    40a0:	2f 57       	subi	r18, 0x7F	; 127
    40a2:	30 40       	sbci	r19, 0x00	; 0
    40a4:	13 96       	adiw	r26, 0x03	; 3
    40a6:	3c 93       	st	X, r19
    40a8:	2e 93       	st	-X, r18
    40aa:	12 97       	sbiw	r26, 0x02	; 2
    40ac:	83 e0       	ldi	r24, 0x03	; 3
    40ae:	8c 93       	st	X, r24
    40b0:	87 e0       	ldi	r24, 0x07	; 7
    40b2:	44 0f       	add	r20, r20
    40b4:	55 1f       	adc	r21, r21
    40b6:	66 1f       	adc	r22, r22
    40b8:	77 1f       	adc	r23, r23
    40ba:	8a 95       	dec	r24
    40bc:	d1 f7       	brne	.-12     	; 0x40b2 <__unpack_f+0xd4>
    40be:	70 64       	ori	r23, 0x40	; 64
    40c0:	14 96       	adiw	r26, 0x04	; 4
    40c2:	4d 93       	st	X+, r20
    40c4:	5d 93       	st	X+, r21
    40c6:	6d 93       	st	X+, r22
    40c8:	7c 93       	st	X, r23
    40ca:	17 97       	sbiw	r26, 0x07	; 7
    40cc:	08 95       	ret

000040ce <__fpcmp_parts_f>:
    40ce:	1f 93       	push	r17
    40d0:	dc 01       	movw	r26, r24
    40d2:	fb 01       	movw	r30, r22
    40d4:	9c 91       	ld	r25, X
    40d6:	92 30       	cpi	r25, 0x02	; 2
    40d8:	08 f4       	brcc	.+2      	; 0x40dc <__fpcmp_parts_f+0xe>
    40da:	47 c0       	rjmp	.+142    	; 0x416a <__fpcmp_parts_f+0x9c>
    40dc:	80 81       	ld	r24, Z
    40de:	82 30       	cpi	r24, 0x02	; 2
    40e0:	08 f4       	brcc	.+2      	; 0x40e4 <__fpcmp_parts_f+0x16>
    40e2:	43 c0       	rjmp	.+134    	; 0x416a <__fpcmp_parts_f+0x9c>
    40e4:	94 30       	cpi	r25, 0x04	; 4
    40e6:	51 f4       	brne	.+20     	; 0x40fc <__fpcmp_parts_f+0x2e>
    40e8:	11 96       	adiw	r26, 0x01	; 1
    40ea:	1c 91       	ld	r17, X
    40ec:	84 30       	cpi	r24, 0x04	; 4
    40ee:	99 f5       	brne	.+102    	; 0x4156 <__fpcmp_parts_f+0x88>
    40f0:	81 81       	ldd	r24, Z+1	; 0x01
    40f2:	68 2f       	mov	r22, r24
    40f4:	70 e0       	ldi	r23, 0x00	; 0
    40f6:	61 1b       	sub	r22, r17
    40f8:	71 09       	sbc	r23, r1
    40fa:	3f c0       	rjmp	.+126    	; 0x417a <__fpcmp_parts_f+0xac>
    40fc:	84 30       	cpi	r24, 0x04	; 4
    40fe:	21 f0       	breq	.+8      	; 0x4108 <__fpcmp_parts_f+0x3a>
    4100:	92 30       	cpi	r25, 0x02	; 2
    4102:	31 f4       	brne	.+12     	; 0x4110 <__fpcmp_parts_f+0x42>
    4104:	82 30       	cpi	r24, 0x02	; 2
    4106:	b9 f1       	breq	.+110    	; 0x4176 <__fpcmp_parts_f+0xa8>
    4108:	81 81       	ldd	r24, Z+1	; 0x01
    410a:	88 23       	and	r24, r24
    410c:	89 f1       	breq	.+98     	; 0x4170 <__fpcmp_parts_f+0xa2>
    410e:	2d c0       	rjmp	.+90     	; 0x416a <__fpcmp_parts_f+0x9c>
    4110:	11 96       	adiw	r26, 0x01	; 1
    4112:	1c 91       	ld	r17, X
    4114:	11 97       	sbiw	r26, 0x01	; 1
    4116:	82 30       	cpi	r24, 0x02	; 2
    4118:	f1 f0       	breq	.+60     	; 0x4156 <__fpcmp_parts_f+0x88>
    411a:	81 81       	ldd	r24, Z+1	; 0x01
    411c:	18 17       	cp	r17, r24
    411e:	d9 f4       	brne	.+54     	; 0x4156 <__fpcmp_parts_f+0x88>
    4120:	12 96       	adiw	r26, 0x02	; 2
    4122:	2d 91       	ld	r18, X+
    4124:	3c 91       	ld	r19, X
    4126:	13 97       	sbiw	r26, 0x03	; 3
    4128:	82 81       	ldd	r24, Z+2	; 0x02
    412a:	93 81       	ldd	r25, Z+3	; 0x03
    412c:	82 17       	cp	r24, r18
    412e:	93 07       	cpc	r25, r19
    4130:	94 f0       	brlt	.+36     	; 0x4156 <__fpcmp_parts_f+0x88>
    4132:	28 17       	cp	r18, r24
    4134:	39 07       	cpc	r19, r25
    4136:	bc f0       	brlt	.+46     	; 0x4166 <__fpcmp_parts_f+0x98>
    4138:	14 96       	adiw	r26, 0x04	; 4
    413a:	8d 91       	ld	r24, X+
    413c:	9d 91       	ld	r25, X+
    413e:	0d 90       	ld	r0, X+
    4140:	bc 91       	ld	r27, X
    4142:	a0 2d       	mov	r26, r0
    4144:	24 81       	ldd	r18, Z+4	; 0x04
    4146:	35 81       	ldd	r19, Z+5	; 0x05
    4148:	46 81       	ldd	r20, Z+6	; 0x06
    414a:	57 81       	ldd	r21, Z+7	; 0x07
    414c:	28 17       	cp	r18, r24
    414e:	39 07       	cpc	r19, r25
    4150:	4a 07       	cpc	r20, r26
    4152:	5b 07       	cpc	r21, r27
    4154:	18 f4       	brcc	.+6      	; 0x415c <__fpcmp_parts_f+0x8e>
    4156:	11 23       	and	r17, r17
    4158:	41 f0       	breq	.+16     	; 0x416a <__fpcmp_parts_f+0x9c>
    415a:	0a c0       	rjmp	.+20     	; 0x4170 <__fpcmp_parts_f+0xa2>
    415c:	82 17       	cp	r24, r18
    415e:	93 07       	cpc	r25, r19
    4160:	a4 07       	cpc	r26, r20
    4162:	b5 07       	cpc	r27, r21
    4164:	40 f4       	brcc	.+16     	; 0x4176 <__fpcmp_parts_f+0xa8>
    4166:	11 23       	and	r17, r17
    4168:	19 f0       	breq	.+6      	; 0x4170 <__fpcmp_parts_f+0xa2>
    416a:	61 e0       	ldi	r22, 0x01	; 1
    416c:	70 e0       	ldi	r23, 0x00	; 0
    416e:	05 c0       	rjmp	.+10     	; 0x417a <__fpcmp_parts_f+0xac>
    4170:	6f ef       	ldi	r22, 0xFF	; 255
    4172:	7f ef       	ldi	r23, 0xFF	; 255
    4174:	02 c0       	rjmp	.+4      	; 0x417a <__fpcmp_parts_f+0xac>
    4176:	60 e0       	ldi	r22, 0x00	; 0
    4178:	70 e0       	ldi	r23, 0x00	; 0
    417a:	cb 01       	movw	r24, r22
    417c:	1f 91       	pop	r17
    417e:	08 95       	ret

00004180 <__divmodhi4>:
    4180:	97 fb       	bst	r25, 7
    4182:	09 2e       	mov	r0, r25
    4184:	07 26       	eor	r0, r23
    4186:	0a d0       	rcall	.+20     	; 0x419c <__divmodhi4_neg1>
    4188:	77 fd       	sbrc	r23, 7
    418a:	04 d0       	rcall	.+8      	; 0x4194 <__divmodhi4_neg2>
    418c:	27 d0       	rcall	.+78     	; 0x41dc <__udivmodhi4>
    418e:	06 d0       	rcall	.+12     	; 0x419c <__divmodhi4_neg1>
    4190:	00 20       	and	r0, r0
    4192:	1a f4       	brpl	.+6      	; 0x419a <__divmodhi4_exit>

00004194 <__divmodhi4_neg2>:
    4194:	70 95       	com	r23
    4196:	61 95       	neg	r22
    4198:	7f 4f       	sbci	r23, 0xFF	; 255

0000419a <__divmodhi4_exit>:
    419a:	08 95       	ret

0000419c <__divmodhi4_neg1>:
    419c:	f6 f7       	brtc	.-4      	; 0x419a <__divmodhi4_exit>
    419e:	90 95       	com	r25
    41a0:	81 95       	neg	r24
    41a2:	9f 4f       	sbci	r25, 0xFF	; 255
    41a4:	08 95       	ret

000041a6 <__divmodsi4>:
    41a6:	97 fb       	bst	r25, 7
    41a8:	09 2e       	mov	r0, r25
    41aa:	05 26       	eor	r0, r21
    41ac:	0e d0       	rcall	.+28     	; 0x41ca <__divmodsi4_neg1>
    41ae:	57 fd       	sbrc	r21, 7
    41b0:	04 d0       	rcall	.+8      	; 0x41ba <__divmodsi4_neg2>
    41b2:	28 d0       	rcall	.+80     	; 0x4204 <__udivmodsi4>
    41b4:	0a d0       	rcall	.+20     	; 0x41ca <__divmodsi4_neg1>
    41b6:	00 1c       	adc	r0, r0
    41b8:	38 f4       	brcc	.+14     	; 0x41c8 <__divmodsi4_exit>

000041ba <__divmodsi4_neg2>:
    41ba:	50 95       	com	r21
    41bc:	40 95       	com	r20
    41be:	30 95       	com	r19
    41c0:	21 95       	neg	r18
    41c2:	3f 4f       	sbci	r19, 0xFF	; 255
    41c4:	4f 4f       	sbci	r20, 0xFF	; 255
    41c6:	5f 4f       	sbci	r21, 0xFF	; 255

000041c8 <__divmodsi4_exit>:
    41c8:	08 95       	ret

000041ca <__divmodsi4_neg1>:
    41ca:	f6 f7       	brtc	.-4      	; 0x41c8 <__divmodsi4_exit>
    41cc:	90 95       	com	r25
    41ce:	80 95       	com	r24
    41d0:	70 95       	com	r23
    41d2:	61 95       	neg	r22
    41d4:	7f 4f       	sbci	r23, 0xFF	; 255
    41d6:	8f 4f       	sbci	r24, 0xFF	; 255
    41d8:	9f 4f       	sbci	r25, 0xFF	; 255
    41da:	08 95       	ret

000041dc <__udivmodhi4>:
    41dc:	aa 1b       	sub	r26, r26
    41de:	bb 1b       	sub	r27, r27
    41e0:	51 e1       	ldi	r21, 0x11	; 17
    41e2:	07 c0       	rjmp	.+14     	; 0x41f2 <__udivmodhi4_ep>

000041e4 <__udivmodhi4_loop>:
    41e4:	aa 1f       	adc	r26, r26
    41e6:	bb 1f       	adc	r27, r27
    41e8:	a6 17       	cp	r26, r22
    41ea:	b7 07       	cpc	r27, r23
    41ec:	10 f0       	brcs	.+4      	; 0x41f2 <__udivmodhi4_ep>
    41ee:	a6 1b       	sub	r26, r22
    41f0:	b7 0b       	sbc	r27, r23

000041f2 <__udivmodhi4_ep>:
    41f2:	88 1f       	adc	r24, r24
    41f4:	99 1f       	adc	r25, r25
    41f6:	5a 95       	dec	r21
    41f8:	a9 f7       	brne	.-22     	; 0x41e4 <__udivmodhi4_loop>
    41fa:	80 95       	com	r24
    41fc:	90 95       	com	r25
    41fe:	bc 01       	movw	r22, r24
    4200:	cd 01       	movw	r24, r26
    4202:	08 95       	ret

00004204 <__udivmodsi4>:
    4204:	a1 e2       	ldi	r26, 0x21	; 33
    4206:	1a 2e       	mov	r1, r26
    4208:	aa 1b       	sub	r26, r26
    420a:	bb 1b       	sub	r27, r27
    420c:	fd 01       	movw	r30, r26
    420e:	0d c0       	rjmp	.+26     	; 0x422a <__udivmodsi4_ep>

00004210 <__udivmodsi4_loop>:
    4210:	aa 1f       	adc	r26, r26
    4212:	bb 1f       	adc	r27, r27
    4214:	ee 1f       	adc	r30, r30
    4216:	ff 1f       	adc	r31, r31
    4218:	a2 17       	cp	r26, r18
    421a:	b3 07       	cpc	r27, r19
    421c:	e4 07       	cpc	r30, r20
    421e:	f5 07       	cpc	r31, r21
    4220:	20 f0       	brcs	.+8      	; 0x422a <__udivmodsi4_ep>
    4222:	a2 1b       	sub	r26, r18
    4224:	b3 0b       	sbc	r27, r19
    4226:	e4 0b       	sbc	r30, r20
    4228:	f5 0b       	sbc	r31, r21

0000422a <__udivmodsi4_ep>:
    422a:	66 1f       	adc	r22, r22
    422c:	77 1f       	adc	r23, r23
    422e:	88 1f       	adc	r24, r24
    4230:	99 1f       	adc	r25, r25
    4232:	1a 94       	dec	r1
    4234:	69 f7       	brne	.-38     	; 0x4210 <__udivmodsi4_loop>
    4236:	60 95       	com	r22
    4238:	70 95       	com	r23
    423a:	80 95       	com	r24
    423c:	90 95       	com	r25
    423e:	9b 01       	movw	r18, r22
    4240:	ac 01       	movw	r20, r24
    4242:	bd 01       	movw	r22, r26
    4244:	cf 01       	movw	r24, r30
    4246:	08 95       	ret

00004248 <__prologue_saves__>:
    4248:	2f 92       	push	r2
    424a:	3f 92       	push	r3
    424c:	4f 92       	push	r4
    424e:	5f 92       	push	r5
    4250:	6f 92       	push	r6
    4252:	7f 92       	push	r7
    4254:	8f 92       	push	r8
    4256:	9f 92       	push	r9
    4258:	af 92       	push	r10
    425a:	bf 92       	push	r11
    425c:	cf 92       	push	r12
    425e:	df 92       	push	r13
    4260:	ef 92       	push	r14
    4262:	ff 92       	push	r15
    4264:	0f 93       	push	r16
    4266:	1f 93       	push	r17
    4268:	cf 93       	push	r28
    426a:	df 93       	push	r29
    426c:	cd b7       	in	r28, 0x3d	; 61
    426e:	de b7       	in	r29, 0x3e	; 62
    4270:	ca 1b       	sub	r28, r26
    4272:	db 0b       	sbc	r29, r27
    4274:	0f b6       	in	r0, 0x3f	; 63
    4276:	f8 94       	cli
    4278:	de bf       	out	0x3e, r29	; 62
    427a:	0f be       	out	0x3f, r0	; 63
    427c:	cd bf       	out	0x3d, r28	; 61
    427e:	09 94       	ijmp

00004280 <__epilogue_restores__>:
    4280:	2a 88       	ldd	r2, Y+18	; 0x12
    4282:	39 88       	ldd	r3, Y+17	; 0x11
    4284:	48 88       	ldd	r4, Y+16	; 0x10
    4286:	5f 84       	ldd	r5, Y+15	; 0x0f
    4288:	6e 84       	ldd	r6, Y+14	; 0x0e
    428a:	7d 84       	ldd	r7, Y+13	; 0x0d
    428c:	8c 84       	ldd	r8, Y+12	; 0x0c
    428e:	9b 84       	ldd	r9, Y+11	; 0x0b
    4290:	aa 84       	ldd	r10, Y+10	; 0x0a
    4292:	b9 84       	ldd	r11, Y+9	; 0x09
    4294:	c8 84       	ldd	r12, Y+8	; 0x08
    4296:	df 80       	ldd	r13, Y+7	; 0x07
    4298:	ee 80       	ldd	r14, Y+6	; 0x06
    429a:	fd 80       	ldd	r15, Y+5	; 0x05
    429c:	0c 81       	ldd	r16, Y+4	; 0x04
    429e:	1b 81       	ldd	r17, Y+3	; 0x03
    42a0:	aa 81       	ldd	r26, Y+2	; 0x02
    42a2:	b9 81       	ldd	r27, Y+1	; 0x01
    42a4:	ce 0f       	add	r28, r30
    42a6:	d1 1d       	adc	r29, r1
    42a8:	0f b6       	in	r0, 0x3f	; 63
    42aa:	f8 94       	cli
    42ac:	de bf       	out	0x3e, r29	; 62
    42ae:	0f be       	out	0x3f, r0	; 63
    42b0:	cd bf       	out	0x3d, r28	; 61
    42b2:	ed 01       	movw	r28, r26
    42b4:	08 95       	ret

000042b6 <memcpy>:
    42b6:	fb 01       	movw	r30, r22
    42b8:	dc 01       	movw	r26, r24
    42ba:	02 c0       	rjmp	.+4      	; 0x42c0 <memcpy+0xa>
    42bc:	01 90       	ld	r0, Z+
    42be:	0d 92       	st	X+, r0
    42c0:	41 50       	subi	r20, 0x01	; 1
    42c2:	50 40       	sbci	r21, 0x00	; 0
    42c4:	d8 f7       	brcc	.-10     	; 0x42bc <memcpy+0x6>
    42c6:	08 95       	ret

000042c8 <_exit>:
    42c8:	f8 94       	cli

000042ca <__stop_program>:
    42ca:	ff cf       	rjmp	.-2      	; 0x42ca <__stop_program>
